LX51 LINKER/LOCATER V4.55a                                                              09/28/2014  17:29:52  PAGE 1


LX51 LINKER/LOCATER V4.55a, INVOKED BY:
C:\KEIL\C51\BIN\LX51.EXE main.obj, .\hal_delay.obj, .\hal_spi.obj, .\hal_uart.obj, .\hal_flash.obj, .\hal_clk.obj TO SPI
>> _exchange PRINT (.\build\SPI_exchange.map) CASE DISABLEWARNING (16)


CPU MODE:     8051 MODE
MEMORY MODEL: SMALL


INPUT MODULES INCLUDED:
  main.obj (MAIN)
         COMMENT TYPE 0: C51 V9.03
  .\hal_delay.obj (HAL_DELAY)
         COMMENT TYPE 0: C51 V9.03
  .\hal_spi.obj (HAL_SPI)
         COMMENT TYPE 0: C51 V9.03
  .\hal_uart.obj (HAL_UART)
         COMMENT TYPE 0: C51 V9.03
  .\hal_flash.obj (HAL_FLASH)
         COMMENT TYPE 0: C51 V9.03
  .\hal_clk.obj (HAL_CLK)
         COMMENT TYPE 0: C51 V9.03
  C:\KEIL\C51\LIB\C51S.LIB (?C_STARTUP)
         COMMENT TYPE 1: A51 / ASM51 Assembler
  C:\KEIL\C51\LIB\C51S.LIB (?C?CLDPTR)
         COMMENT TYPE 1: A51 / ASM51 Assembler
  C:\KEIL\C51\LIB\C51S.LIB (?C?CLDOPTR)
         COMMENT TYPE 1: A51 / ASM51 Assembler
  C:\KEIL\C51\LIB\C51S.LIB (?C?CSTPTR)
         COMMENT TYPE 1: A51 / ASM51 Assembler
  C:\KEIL\C51\LIB\C51S.LIB (?C?CSTOPTR)
         COMMENT TYPE 1: A51 / ASM51 Assembler
  C:\KEIL\C51\LIB\C51S.LIB (PRINTF)
         COMMENT TYPE 1: A51 / ASM51 Assembler
  C:\KEIL\C51\LIB\C51S.LIB (?C_INIT)
         COMMENT TYPE 1: A51 / ASM51 Assembler
  C:\KEIL\C51\LIB\C51S.LIB (?C?PLDIIDATA)
         COMMENT TYPE 1: A51 / ASM51 Assembler
  C:\KEIL\C51\LIB\C51S.LIB (?C?CCASE)
         COMMENT TYPE 1: A51 / ASM51 Assembler


ACTIVE MEMORY CLASSES OF MODULE:  SPI_exchange (MAIN)

BASE        START       END         USED      MEMORY CLASS
==========================================================
C:000000H   C:000000H   C:00FFFFH   000A12H   CODE
I:000000H   I:000000H   I:00007FH   00004AH   DATA
I:000000H   I:000000H   I:0000FFH   000011H   IDATA
I:000020H.0 I:000020H.0 I:00002FH.7 000001H.1 BIT


MEMORY MAP OF MODULE:  SPI_exchange (MAIN)


START     STOP      LENGTH    ALIGN  RELOC    MEMORY CLASS   SEGMENT NAME
=========================================================================

* * * * * * * * * * *   D A T A   M E M O R Y   * * * * * * * * * * * * *
000000H   000007H   000008H   ---    AT..     DATA           "REG BANK 0"
000008H   00001DH   000016H   BYTE   UNIT     DATA           _DATA_GROUP_
00001EH   00001FH   000002H   BYTE   UNIT     DATA           ?DT?HAL_SPI
000020H.0 000021H.0 000001H.1 BIT    UNIT     BIT            _BIT_GROUP_
000021H.1 000021H   000000H.7 ---    ---      **GAP**
000022H   000029H   000008H   BYTE   UNIT     DATA           ?DT?_HAL_SPI_SLAVE_READN?MAIN
00002AH   000030H   000007H   BYTE   UNIT     DATA           ?DT?MAIN
LX51 LINKER/LOCATER V4.55a                                                            09/28/2014  17:29:52  PAGE 2


000031H   000037H   000007H   BYTE   UNIT     DATA           ?DT?_HAL_FLASH_BYTES_WRITE?HAL_FLASH
000038H   00003EH   000007H   BYTE   UNIT     DATA           ?DT?_HAL_FLASH_BYTES_READ?HAL_FLASH
00003FH   000044H   000006H   BYTE   UNIT     DATA           ?DT?HAL_UART
000045H   000048H   000004H   BYTE   UNIT     DATA           ?DT?HAL_FLASH
000049H   00004BH   000003H   BYTE   UNIT     DATA           ?DT?_PUTSTRING?MAIN
00004CH   00005BH   000010H   BYTE   UNIT     IDATA          ?ID?HAL_UART
00005CH   00005CH   000001H   BYTE   UNIT     IDATA          ?STACK

* * * * * * * * * * *   C O D E   M E M O R Y   * * * * * * * * * * * * *
000000H   000002H   000003H   ---    OFFS..   CODE           ?CO??C_STARTUP?0
000003H   00001EH   00001CH   BYTE   UNIT     CODE           ?PR?HAL_SPI_SLAVE_CSN_HIGH?HAL_SPI
00001FH   000022H   000004H   BYTE   UNIT     CODE           ?PR?GETCHAR?MAIN
000023H   000025H   000003H   BYTE   OFFS..   CODE           ?HAL_UART?00023
000026H   00004AH   000025H   BYTE   UNIT     CODE           ?PR?_PUTSTRING?MAIN
00004BH   000052H   000008H   BYTE   UNIT     CODE           ?PR?_PUTCHAR?MAIN
000053H   000055H   000003H   BYTE   OFFS..   CODE           ?MAIN?00053
000056H   0003B1H   00035CH   BYTE   UNIT     CODE           ?PR?PRINTF?PRINTF
0003B2H   000477H   0000C6H   BYTE   UNIT     CODE           ?PR?_HAL_SPI_SLAVE_READN?MAIN
000478H   000527H   0000B0H   BYTE   UNIT     CODE           ?C?LIB_CODE
000528H   0005CAH   0000A3H   BYTE   UNIT     CODE           ?PR?MAIN?MAIN
0005CBH   00065DH   000093H   BYTE   UNIT     CODE           ?CO?MAIN
00065EH   0006E9H   00008CH   BYTE   UNIT     CODE           ?C_C51STARTUP
0006EAH   00073BH   000052H   BYTE   UNIT     CODE           ?PR?_HAL_SPI_MASTER_INIT?HAL_SPI
00073CH   000789H   00004EH   BYTE   UNIT     CODE           ?PR?_HAL_FLASH_BYTES_WRITE?HAL_FLASH
00078AH   0007D5H   00004CH   BYTE   UNIT     CODE           ?PR?SERIAL_ISR?MAIN
0007D6H   00081EH   000049H   BYTE   UNIT     CODE           ?PR?UART0_ISR?HAL_UART
00081FH   000864H   000046H   BYTE   UNIT     CODE           ?PR?_HAL_UART_INIT?HAL_UART
000865H   0008A0H   00003CH   BYTE   UNIT     CODE           ?PR?_HAL_SPI_SLAVE_INIT?HAL_SPI
0008A1H   0008C4H   000024H   BYTE   UNIT     CODE           ?PR?_HAL_UART_PUTCHAR?HAL_UART
0008C5H   0008E8H   000024H   BYTE   UNIT     CODE           ?PR?_HAL_FLASH_BYTES_READ?HAL_FLASH
0008E9H   000904H   00001CH   BYTE   UNIT     CODE           ?PR?_HAL_FLASH_BYTE_WRITE?HAL_FLASH
000905H   00091EH   00001AH   BYTE   UNIT     CODE           ?PR?_DELAY_US?HAL_DELAY
00091FH   000937H   000019H   BYTE   UNIT     CODE           ?PR?HAL_UART_GETCHAR?HAL_UART
000938H   00094BH   000014H   BYTE   UNIT     CODE           ?PR?_DELAY_MS?HAL_DELAY
00094CH   00095FH   000014H   BYTE   UNIT     CODE           ?PR?_HAL_FLASH_PAGE_ERASE?HAL_FLASH
000960H   000970H   000011H   BYTE   UNIT     CODE           ?PR?HAL_SPI_SLAVE_READ?HAL_SPI
000971H   000981H   000011H   BYTE   UNIT     CODE           ?PR?_HAL_CLK_SET_INPUT?HAL_CLK
000982H   000991H   000010H   BYTE   UNIT     CODE           ?PR?_HAL_CLK_REGRET_XOSC16M_ON?HAL_CLK
000992H   0009A0H   00000FH   BYTE   UNIT     CODE           ?PR?_HAL_CLK_SET_16M_SOURCE?HAL_CLK
0009A1H   0009AEH   00000EH   BYTE   UNIT     CODE           ?C_INITSEG
0009AFH   0009BCH   00000EH   BYTE   UNIT     CODE           ?PR?SPI_SLAVE_DATA_READY?HAL_SPI
0009BDH   0009C8H   00000CH   BYTE   UNIT     CODE           ?PR?_HAL_CLK_SET_FREQ?HAL_CLK
0009C9H   0009D4H   00000CH   BYTE   UNIT     CODE           ?PR?_HAL_CLKLF_SET_SOURCE?HAL_CLK
0009D5H   0009DEH   00000AH   BYTE   UNIT     CODE           ?PR?_HAL_SPI_MASTER_READ_WRITE?HAL_SPI
0009DFH   0009E8H   00000AH   BYTE   UNIT     CODE           ?PR?HAL_CLK_GET_16M_SOURCE?HAL_CLK
0009E9H   0009F1H   000009H   BYTE   UNIT     CODE           ?PR?HAL_UART_TX_COMPLETE?HAL_UART
0009F2H   0009F8H   000007H   BYTE   UNIT     CODE           ?PR?_HAL_SPI_SLAVE_RW?HAL_SPI
0009F9H   0009FFH   000007H   BYTE   UNIT     CODE           ?PR?_HAL_FLASH_BYTE_READ?HAL_FLASH
000A00H   000A05H   000006H   BYTE   UNIT     CODE           ?PR?HAL_CLKLF_PHASE?HAL_CLK
000A06H   000A0BH   000006H   BYTE   UNIT     CODE           ?PR?HAL_CLKLF_READY?HAL_CLK
000A0CH   000A0EH   000003H   BYTE   UNIT     CODE           ?PR?_HAL_SPI_SLAVE_PRELOAD?HAL_SPI
000A0FH   000A11H   000003H   BYTE   UNIT     CODE           ?PR?HAL_UART_CHARS_AVAILABLE?HAL_UART



OVERLAY MAP OF MODULE:   SPI_exchange (MAIN)


FUNCTION/MODULE                          BIT_GROUP   DATA_GROUP 
--> CALLED FUNCTION/MODULE              START  STOP  START  STOP
================================================================
SERIAL_ISR/MAIN                         ----- -----  ----- -----
  +--> _HAL_SPI_SLAVE_RW/HAL_SPI

_HAL_SPI_SLAVE_RW/HAL_SPI               ----- -----  ----- -----
LX51 LINKER/LOCATER V4.55a                                                            09/28/2014  17:29:52  PAGE 3


  +--> _HAL_SPI_SLAVE_PRELOAD/HAL_SPI
  +--> HAL_SPI_SLAVE_READ/HAL_SPI

_HAL_SPI_SLAVE_PRELOAD/HAL_SPI          ----- -----  ----- -----

HAL_SPI_SLAVE_READ/HAL_SPI              ----- -----  ----- -----

*** NEW ROOT **************************

UART0_ISR/HAL_UART                      ----- -----  ----- -----

*** NEW ROOT **************************

?C_C51STARTUP                           ----- -----  ----- -----
  +--> MAIN/MAIN
  +--> ?C_INITSEG

MAIN/MAIN                               ----- -----  0008H 0008H
  +--> _HAL_UART_INIT/HAL_UART
  +--> HAL_CLK_GET_16M_SOURCE/HAL_CLK
  +--> _HAL_SPI_SLAVE_INIT/HAL_SPI
  +--> ?CO?MAIN
  +--> PRINTF/PRINTF

_HAL_UART_INIT/HAL_UART                 ----- -----  ----- -----

HAL_CLK_GET_16M_SOURCE/HAL_CLK          ----- -----  ----- -----

_HAL_SPI_SLAVE_INIT/HAL_SPI             ----- -----  0009H 0009H

?CO?MAIN                                ----- -----  ----- -----

PRINTF/PRINTF                           20H.0 21H.0  0009H 001CH
  +--> _PUTCHAR/MAIN

_PUTCHAR/MAIN                           ----- -----  001DH 001DH
  +--> _HAL_UART_PUTCHAR/HAL_UART

_HAL_UART_PUTCHAR/HAL_UART              ----- -----  ----- -----

?C_INITSEG                              ----- -----  ----- -----



PUBLIC SYMBOLS OF MODULE:  SPI_exchange (MAIN)


      VALUE       CLASS    TYPE      PUBLIC SYMBOL NAME
      =================================================
      00000038H   DATA     BYTE      ?_hal_flash_bytes_read?BYTE
      00000031H   DATA     BYTE      ?_hal_flash_bytes_write?BYTE
      00000009H   DATA     ---       ?_PRINTF517?BYTE
      00000009H   DATA     ---       ?_PRINTF?BYTE
      00000009H   DATA     ---       ?_SPRINTF517?BYTE
      00000009H   DATA     ---       ?_SPRINTF?BYTE
      01000502H   CODE     ---       ?C?CCASE
      01000491H   CODE     ---       ?C?CLDOPTR
      01000478H   CODE     ---       ?C?CLDPTR
      00000000H   NUMBER   ---       ?C?CODESEG
      010004D0H   CODE     ---       ?C?CSTOPTR
      010004BEH   CODE     ---       ?C?CSTPTR
      010004F2H   CODE     ---       ?C?PLDIIDATA
      00000000H   NUMBER   ---       ?C?XDATASEG
      010006A5H   CODE     ---       ?C_START
      01000000H   CODE     ---       ?C_STARTUP
LX51 LINKER/LOCATER V4.55a                                                            09/28/2014  17:29:52  PAGE 4


      01000938H   CODE     ---       _delay_ms
      01000910H   CODE     ---       _delay_us
      01000982H   CODE     ---       _hal_clk_regret_xosc16m_on
      01000992H   CODE     ---       _hal_clk_set_16m_source
      010009BDH   CODE     ---       _hal_clk_set_freq
      01000971H   CODE     ---       _hal_clk_set_input
      010009C9H   CODE     ---       _hal_clklf_set_source
      010009F9H   CODE     ---       _hal_flash_byte_read
      010008E9H   CODE     ---       _hal_flash_byte_write
      010008C5H   CODE     ---       _hal_flash_bytes_read
      0100073CH   CODE     ---       _hal_flash_bytes_write
      0100094CH   CODE     ---       _hal_flash_page_erase
      010006EAH   CODE     ---       _hal_spi_master_init
      010009D5H   CODE     ---       _hal_spi_master_read_write
      01000865H   CODE     ---       _hal_spi_slave_init
      01000A0CH   CODE     ---       _hal_spi_slave_preload
      010003B2H   CODE     ---       _hal_spi_slave_readn
      010009F2H   CODE     ---       _hal_spi_slave_rw
      0100081FH   CODE     ---       _hal_uart_init
      010008A1H   CODE     ---       _hal_uart_putchar
      010000B8H   CODE     ---       _PRINTF
      010000B8H   CODE     ---       _PRINTF517
      0100004BH   CODE     ---       _putchar
      01000026H   CODE     ---       _putstring
      010000B2H   CODE     ---       _SPRINTF
      010000B2H   CODE     ---       _SPRINTF517
*SFR* 000000D0H.6 DATA     BIT       AC
*SFR* 000000E0H   DATA     BYTE      ACC
*SFR* 000000D3H   DATA     BYTE      ADCCON1
*SFR* 000000D2H   DATA     BYTE      ADCCON2
*SFR* 000000D1H   DATA     BYTE      ADCCON3
*SFR* 000000D4H   DATA     BYTE      ADCDATH
*SFR* 000000D5H   DATA     BYTE      ADCDATL
*SFR* 000000D8H   DATA     BYTE      ADCON
*SFR* 000000EFH   DATA     BYTE      ARCON
*SFR* 000000F0H   DATA     BYTE      B
*SFR* 000000D8H.7 DATA     BIT       BD
      0000002EH   DATA     ---       buf
*SFR* 000000C2H   DATA     WORD      CC1
*SFR* 000000C4H   DATA     WORD      CC2
*SFR* 000000C6H   DATA     WORD      CC3
*SFR* 000000C1H   DATA     BYTE      CCEN
*SFR* 000000C3H   DATA     BYTE      CCH1
*SFR* 000000C5H   DATA     BYTE      CCH2
*SFR* 000000C7H   DATA     BYTE      CCH3
*SFR* 000000C2H   DATA     BYTE      CCL1
*SFR* 000000C4H   DATA     BYTE      CCL2
*SFR* 000000C6H   DATA     BYTE      CCL3
*SFR* 000000DDH   DATA     BYTE      CCPDATIA
*SFR* 000000DEH   DATA     BYTE      CCPDATIB
*SFR* 000000DFH   DATA     BYTE      CCPDATO
*SFR* 000000A3H   DATA     BYTE      CLKCTRL
*SFR* 000000ADH   DATA     BYTE      CLKLFCTRL
*SFR* 000000DBH   DATA     BYTE      COMPCON
*SFR* 000000CAH   DATA     WORD      CRC
*SFR* 000000CBH   DATA     BYTE      CRCH
*SFR* 000000CAH   DATA     BYTE      CRCL
*SFR* 000000D0H.7 DATA     BIT       CY
*SFR* 00000083H   DATA     BYTE      DPH
*SFR* 00000085H   DATA     BYTE      DPH1
*SFR* 00000082H   DATA     BYTE      DPL
*SFR* 00000084H   DATA     BYTE      DPL1
*SFR* 00000092H   DATA     BYTE      DPS
*SFR* 000000A8H.7 DATA     BIT       EA
*SFR* 000000A8H.4 DATA     BIT       ES0
LX51 LINKER/LOCATER V4.55a                                                            09/28/2014  17:29:52  PAGE 5


*SFR* 000000A8H.1 DATA     BIT       ET0
*SFR* 000000A8H.3 DATA     BIT       ET1
*SFR* 000000A8H.5 DATA     BIT       ET2
*SFR* 000000A8H   DATA     BIT       EX0
*SFR* 000000A8H.2 DATA     BIT       EX1
*SFR* 000000B8H.7 DATA     BIT       EXEN2
*SFR* 000000C0H.7 DATA     BIT       EXF2
*SFR* 000000D0H.5 DATA     BIT       F0
*SFR* 000000FAH   DATA     BYTE      FCR
*SFR* 000000FBH   DATA     BYTE      FDCR
*SFR* 000000F9H   DATA     BYTE      FPCR
*SFR* 000000F8H   DATA     BYTE      FSR
      0100001FH   CODE     ---       getchar
      010009DFH   CODE     ---       hal_clk_get_16m_source
      01000A00H   CODE     ---       hal_clklf_phase
      01000A06H   CODE     ---       hal_clklf_ready
      01000003H   CODE     ---       hal_spi_slave_csn_high
      01000960H   CODE     ---       hal_spi_slave_read
      01000A0FH   CODE     ---       hal_uart_chars_available
      0100091FH   CODE     ---       hal_uart_getchar
      010009E9H   CODE     ---       hal_uart_tx_complete
*SFR* 000000C8H.5 DATA     BIT       I2FR
*SFR* 000000C8H.6 DATA     BIT       I3FR
*SFR* 00000088H.1 DATA     BIT       IE0
*SFR* 00000088H.3 DATA     BIT       IE1
*SFR* 000000A8H   DATA     BYTE      IEN0
*SFR* 000000B8H   DATA     BYTE      IEN1
*SFR* 000000F8H.3 DATA     BIT       INFEN
      0000002BH   DATA     BYTE      inter
*SFR* 000000A6H   DATA     BYTE      INTEXP
*SFR* 000000A9H   DATA     BYTE      IP0
*SFR* 000000B9H   DATA     BYTE      IP1
*SFR* 000000C0H   DATA     BYTE      IRCON
*SFR* 00000088H   DATA     BIT       IT0
*SFR* 00000088H.2 DATA     BIT       IT1
      01000528H   CODE     ---       main
*SFR* 000000F8H.7 DATA     BIT       MCDIS
*SFR* 000000E9H   DATA     BYTE      MD0
*SFR* 000000EAH   DATA     BYTE      MD1
*SFR* 000000EBH   DATA     BYTE      MD2
*SFR* 000000ECH   DATA     BYTE      MD3
*SFR* 000000EDH   DATA     BYTE      MD4
*SFR* 000000EEH   DATA     BYTE      MD5
*SFR* 000000A7H   DATA     BYTE      MEMCON
*SFR* 000000B8H.4 DATA     BIT       MISC
*SFR* 000000C0H.4 DATA     BIT       MISCF
*SFR* 000000C9H   DATA     BYTE      MPAGE
*SFR* 000000AEH   DATA     BYTE      OPMCON
*SFR* 000000D0H.2 DATA     BIT       OV
*SFR* 000000D0H   DATA     BIT       P
*SFR* 00000080H   DATA     BYTE      P0
*SFR* 00000080H   DATA     BIT       P00
*SFR* 00000080H.1 DATA     BIT       P01
*SFR* 00000080H.2 DATA     BIT       P02
*SFR* 00000080H.3 DATA     BIT       P03
*SFR* 00000080H.4 DATA     BIT       P04
*SFR* 00000080H.5 DATA     BIT       P05
*SFR* 00000080H.6 DATA     BIT       P06
*SFR* 00000080H.7 DATA     BIT       P07
*SFR* 0000009EH   DATA     BYTE      P0CON
*SFR* 00000093H   DATA     BYTE      P0DIR
*SFR* 00000090H   DATA     BYTE      P1
*SFR* 00000090H   DATA     BIT       P10
*SFR* 00000090H.1 DATA     BIT       P11
*SFR* 00000090H.2 DATA     BIT       P12
LX51 LINKER/LOCATER V4.55a                                                            09/28/2014  17:29:52  PAGE 6


*SFR* 00000090H.3 DATA     BIT       P13
*SFR* 00000090H.4 DATA     BIT       P14
*SFR* 00000090H.5 DATA     BIT       P15
*SFR* 00000090H.6 DATA     BIT       P16
*SFR* 00000090H.7 DATA     BIT       P17
*SFR* 0000009FH   DATA     BYTE      P1CON
*SFR* 00000094H   DATA     BYTE      P1DIR
*SFR* 000000A0H   DATA     BYTE      P2
*SFR* 000000A0H   DATA     BIT       P20
*SFR* 000000A0H.1 DATA     BIT       P21
*SFR* 000000A0H.2 DATA     BIT       P22
*SFR* 000000A0H.3 DATA     BIT       P23
*SFR* 000000A0H.4 DATA     BIT       P24
*SFR* 000000A0H.5 DATA     BIT       P25
*SFR* 000000A0H.6 DATA     BIT       P26
*SFR* 000000A0H.7 DATA     BIT       P27
*SFR* 00000097H   DATA     BYTE      P2CON
*SFR* 00000095H   DATA     BYTE      P2DIR
*SFR* 000000B0H   DATA     BYTE      P3
*SFR* 000000B0H   DATA     BIT       P30
*SFR* 000000B0H.1 DATA     BIT       P31
*SFR* 000000B0H.2 DATA     BIT       P32
*SFR* 000000B0H.3 DATA     BIT       P33
*SFR* 000000B0H.4 DATA     BIT       P34
*SFR* 000000B0H.5 DATA     BIT       P35
*SFR* 000000B0H.6 DATA     BIT       P36
*SFR* 000000B0H.7 DATA     BIT       P37
*SFR* 0000008FH   DATA     BYTE      P3CON
*SFR* 00000096H   DATA     BYTE      P3DIR
*SFR* 00000087H   DATA     BYTE      PCON
*SFR* 000000DCH   DATA     BYTE      POFCON
*SFR* 000000D0H   DATA     BYTE      PSW
*SFR* 000000B2H   DATA     BYTE      PWMCON
*SFR* 000000A1H   DATA     BYTE      PWMDC0
*SFR* 000000A2H   DATA     BYTE      PWMDC1
*SFR* 000000A4H   DATA     BYTE      PWRDWN
*SFR* 00000098H.2 DATA     BIT       RB80
      0000002CH   DATA     WORD      rcev
*SFR* 000000F8H.1 DATA     BIT       RDEND
*SFR* 000000F8H.2 DATA     BIT       RDIS
*SFR* 000000F8H.4 DATA     BIT       RDYN
      0000002AH   DATA     BYTE      read
*SFR* 00000098H.4 DATA     BIT       REN0
*SFR* 000000B8H.1 DATA     BIT       RF
*SFR* 000000E8H   DATA     BIT       RFCE
*SFR* 000000E8H.2 DATA     BIT       RFCKEN
*SFR* 000000E8H   DATA     BYTE      RFCON
*SFR* 000000E8H.1 DATA     BIT       RFCSN
*SFR* 000000C0H.1 DATA     BIT       RFF
*SFR* 000000B8H   DATA     BIT       RFSPI
*SFR* 000000C0H   DATA     BIT       RFSPIF
*SFR* 00000098H   DATA     BIT       RI0
*SFR* 000000D6H   DATA     BYTE      RNGCTL
*SFR* 000000D7H   DATA     BYTE      RNGDAT
*SFR* 000000D0H.3 DATA     BIT       RS0
*SFR* 000000D0H.4 DATA     BIT       RS1
*SFR* 000000B1H   DATA     BYTE      RSTREAS
*SFR* 000000B4H   DATA     BYTE      RTC2CMP0
*SFR* 000000B5H   DATA     BYTE      RTC2CMP1
*SFR* 000000B3H   DATA     BYTE      RTC2CON
*SFR* 000000B6H   DATA     BYTE      RTC2CPT00
*SFR* 000000ABH   DATA     BYTE      RTC2CPT01
*SFR* 000000ACH   DATA     BYTE      RTC2CPT10
*SFR* 00000099H   DATA     BYTE      S0BUF
*SFR* 00000098H   DATA     BYTE      S0CON
LX51 LINKER/LOCATER V4.55a                                                            09/28/2014  17:29:52  PAGE 7


*SFR* 000000BAH   DATA     BYTE      S0RELH
*SFR* 000000AAH   DATA     BYTE      S0RELL
      0100078AH   CODE     ---       serial_isr
*SFR* 00000098H.7 DATA     BIT       SM0
*SFR* 00000098H.6 DATA     BIT       SM1
*SFR* 00000098H.5 DATA     BIT       SM20
*SFR* 00000081H   DATA     BYTE      SP
*SFR* 000000B8H.2 DATA     BIT       SPI
      010009AFH   CODE     ---       spi_slave_data_ready
*SFR* 000000C0H.2 DATA     BIT       SPIF
*SFR* 000000FCH   DATA     BYTE      SPIMCON0
*SFR* 000000FDH   DATA     BYTE      SPIMCON1
*SFR* 000000FFH   DATA     BYTE      SPIMDAT
*SFR* 000000FEH   DATA     BYTE      SPIMSTAT
*SFR* 000000E4H   DATA     BYTE      SPIRCON0
*SFR* 000000E5H   DATA     BYTE      SPIRCON1
*SFR* 000000E7H   DATA     BYTE      SPIRDAT
*SFR* 000000E6H   DATA     BYTE      SPIRSTAT
*SFR* 000000BCH   DATA     BYTE      SPISCON0
*SFR* 000000BDH   DATA     BYTE      SPISCON1
*SFR* 000000BFH   DATA     BYTE      SPISDAT
*SFR* 000000B7H   DATA     BYTE      SPISRDSZ
*SFR* 000000BEH   DATA     BYTE      SPISSTAT
      0000001FH   DATA     BYTE      sstat_shadow
*SFR* 000000F8H.6 DATA     BIT       STP
*SFR* 000000CCH   DATA     WORD      T2
*SFR* 000000C8H.2 DATA     BIT       T2CM
*SFR* 000000C8H   DATA     BYTE      T2CON
*SFR* 000000C8H   DATA     BIT       T2I0
*SFR* 000000C8H.1 DATA     BIT       T2I1
*SFR* 000000C8H.7 DATA     BIT       T2PS
*SFR* 000000C8H.3 DATA     BIT       T2R0
*SFR* 000000C8H.4 DATA     BIT       T2R1
*SFR* 00000098H.3 DATA     BIT       TB80
*SFR* 00000088H   DATA     BYTE      TCON
*SFR* 00000088H.5 DATA     BIT       TF0
*SFR* 00000088H.7 DATA     BIT       TF1
*SFR* 000000C0H.6 DATA     BIT       TF2
*SFR* 0000008CH   DATA     BYTE      TH0
*SFR* 0000008DH   DATA     BYTE      TH1
*SFR* 000000CDH   DATA     BYTE      TH2
*SFR* 00000098H.1 DATA     BIT       TI0
*SFR* 0000008AH   DATA     BYTE      TL0
*SFR* 0000008BH   DATA     BYTE      TL1
*SFR* 000000CCH   DATA     BYTE      TL2
*SFR* 00000089H   DATA     BYTE      TMOD
*SFR* 00000088H.4 DATA     BIT       TR0
*SFR* 00000088H.6 DATA     BIT       TR1
      010007D6H   CODE     ---       uart0_isr
*SFR* 000000E2H   DATA     BYTE      W2CON0
*SFR* 000000E1H   DATA     BYTE      W2CON1
*SFR* 000000DAH   DATA     BYTE      W2DAT
*SFR* 000000D9H   DATA     BYTE      W2SADR
*SFR* 000000AFH   DATA     BYTE      WDSV
*SFR* 000000F8H.5 DATA     BIT       WEN
*SFR* 000000F8H   DATA     BIT       WPEN
*SFR* 000000A5H   DATA     BYTE      WUCON
*SFR* 000000C0H.5 DATA     BIT       WUF
*SFR* 000000B8H.5 DATA     BIT       WUIRQ
*SFR* 000000CFH   DATA     BYTE      WUOPC0
*SFR* 000000CEH   DATA     BYTE      WUOPC1
*SFR* 000000B8H.3 DATA     BIT       WUPIN
*SFR* 000000C0H.3 DATA     BIT       WUPINF


LX51 LINKER/LOCATER V4.55a                                                            09/28/2014  17:29:52  PAGE 8



SYMBOL TABLE OF MODULE:  SPI_exchange (MAIN)

      VALUE       REP       CLASS    TYPE      SYMBOL NAME
      ====================================================
      ---         MODULE    ---      ---       MAIN
      0000002EH   PUBLIC    DATA     ---       buf
      0000002CH   PUBLIC    DATA     WORD      rcev
      0000002BH   PUBLIC    DATA     BYTE      inter
      0000002AH   PUBLIC    DATA     BYTE      read
      0100078AH   PUBLIC    CODE     ---       serial_isr
      01000528H   PUBLIC    CODE     ---       main
      010003B2H   PUBLIC    CODE     ---       _hal_spi_slave_readn
      01000026H   PUBLIC    CODE     ---       _putstring
      0100001FH   PUBLIC    CODE     ---       getchar
      0100004BH   PUBLIC    CODE     ---       _putchar
      00000098H.3 SFRSYM    DATA     BIT       TB80
      000000BEH   SFRSYM    DATA     BYTE      SPISSTAT
      000000C8H   SFRSYM    DATA     BIT       T2I0
      000000C3H   SFRSYM    DATA     BYTE      CCH1
      00000080H   SFRSYM    DATA     BYTE      P0
      000000C8H.1 SFRSYM    DATA     BIT       T2I1
      000000DFH   SFRSYM    DATA     BYTE      CCPDATO
      000000C5H   SFRSYM    DATA     BYTE      CCH2
      00000090H   SFRSYM    DATA     BYTE      P1
      000000C7H   SFRSYM    DATA     BYTE      CCH3
      000000A0H   SFRSYM    DATA     BYTE      P2
      00000098H.5 SFRSYM    DATA     BIT       SM20
      000000B0H   SFRSYM    DATA     BYTE      P3
      000000D0H.6 SFRSYM    DATA     BIT       AC
      000000C2H   SFRSYM    DATA     BYTE      CCL1
      000000C4H   SFRSYM    DATA     BYTE      CCL2
      000000D8H.7 SFRSYM    DATA     BIT       BD
      000000B8H   SFRSYM    DATA     BIT       RFSPI
      000000A8H.7 SFRSYM    DATA     BIT       EA
      000000CCH   SFRSYM    DATA     WORD      T2
      000000C6H   SFRSYM    DATA     BYTE      CCL3
      000000B7H   SFRSYM    DATA     BYTE      SPISRDSZ
      000000C8H.3 SFRSYM    DATA     BIT       T2R0
      000000C8H.4 SFRSYM    DATA     BIT       T2R1
      000000A8H   SFRSYM    DATA     BYTE      IEN0
      000000B8H   SFRSYM    DATA     BYTE      IEN1
      000000A5H   SFRSYM    DATA     BYTE      WUCON
      00000085H   SFRSYM    DATA     BYTE      DPH1
      000000DBH   SFRSYM    DATA     BYTE      COMPCON
      000000A3H   SFRSYM    DATA     BYTE      CLKCTRL
      00000084H   SFRSYM    DATA     BYTE      DPL1
      000000C8H.5 SFRSYM    DATA     BIT       I2FR
      000000B8H.3 SFRSYM    DATA     BIT       WUPIN
      000000C8H.6 SFRSYM    DATA     BIT       I3FR
      000000FFH   SFRSYM    DATA     BYTE      SPIMDAT
      000000C0H.7 SFRSYM    DATA     BIT       EXF2
      00000098H.4 SFRSYM    DATA     BIT       REN0
      000000C8H.2 SFRSYM    DATA     BIT       T2CM
      000000B8H.1 SFRSYM    DATA     BIT       RF
      000000B8H.5 SFRSYM    DATA     BIT       WUIRQ
      000000E7H   SFRSYM    DATA     BYTE      SPIRDAT
      000000C1H   SFRSYM    DATA     BYTE      CCEN
      000000E2H   SFRSYM    DATA     BYTE      W2CON0
      000000BFH   SFRSYM    DATA     BYTE      SPISDAT
      000000D0H.7 SFRSYM    DATA     BIT       CY
      000000E1H   SFRSYM    DATA     BYTE      W2CON1
      000000FBH   SFRSYM    DATA     BYTE      FDCR
      000000E8H   SFRSYM    DATA     BIT       RFCE
      000000CBH   SFRSYM    DATA     BYTE      CRCH
LX51 LINKER/LOCATER V4.55a                                                            09/28/2014  17:29:52  PAGE 9


      00000081H   SFRSYM    DATA     BYTE      SP
      000000D0H.2 SFRSYM    DATA     BIT       OV
      000000CAH   SFRSYM    DATA     BYTE      CRCL
      000000ADH   SFRSYM    DATA     BYTE      CLKLFCTRL
      000000B1H   SFRSYM    DATA     BYTE      RSTREAS
      000000C8H.7 SFRSYM    DATA     BIT       T2PS
      000000F9H   SFRSYM    DATA     BYTE      FPCR
      000000B8H.4 SFRSYM    DATA     BIT       MISC
      000000A1H   SFRSYM    DATA     BYTE      PWMDC0
      000000B4H   SFRSYM    DATA     BYTE      RTC2CMP0
      000000A2H   SFRSYM    DATA     BYTE      PWMDC1
      000000B5H   SFRSYM    DATA     BYTE      RTC2CMP1
      00000080H   SFRSYM    DATA     BIT       P00
      000000BAH   SFRSYM    DATA     BYTE      S0RELH
      00000090H   SFRSYM    DATA     BIT       P10
      00000080H.1 SFRSYM    DATA     BIT       P01
      00000087H   SFRSYM    DATA     BYTE      PCON
      000000A0H   SFRSYM    DATA     BIT       P20
      00000090H.1 SFRSYM    DATA     BIT       P11
      00000080H.2 SFRSYM    DATA     BIT       P02
      000000B0H   SFRSYM    DATA     BIT       P30
      000000A0H.1 SFRSYM    DATA     BIT       P21
      00000090H.2 SFRSYM    DATA     BIT       P12
      00000080H.3 SFRSYM    DATA     BIT       P03
      000000C0H.2 SFRSYM    DATA     BIT       SPIF
      000000F8H.2 SFRSYM    DATA     BIT       RDIS
      000000B0H.1 SFRSYM    DATA     BIT       P31
      000000A0H.2 SFRSYM    DATA     BIT       P22
      00000090H.3 SFRSYM    DATA     BIT       P13
      00000080H.4 SFRSYM    DATA     BIT       P04
      000000AAH   SFRSYM    DATA     BYTE      S0RELL
      000000B0H.2 SFRSYM    DATA     BIT       P32
      000000A0H.3 SFRSYM    DATA     BIT       P23
      00000090H.4 SFRSYM    DATA     BIT       P14
      00000080H.5 SFRSYM    DATA     BIT       P05
      000000D9H   SFRSYM    DATA     BYTE      W2SADR
      00000089H   SFRSYM    DATA     BYTE      TMOD
      00000088H   SFRSYM    DATA     BYTE      TCON
      000000B0H.3 SFRSYM    DATA     BIT       P33
      000000A0H.4 SFRSYM    DATA     BIT       P24
      00000090H.5 SFRSYM    DATA     BIT       P15
      00000080H.6 SFRSYM    DATA     BIT       P06
      000000B0H.4 SFRSYM    DATA     BIT       P34
      000000A0H.5 SFRSYM    DATA     BIT       P25
      00000090H.6 SFRSYM    DATA     BIT       P16
      00000080H.7 SFRSYM    DATA     BIT       P07
      000000C2H   SFRSYM    DATA     WORD      CC1
      000000B0H.5 SFRSYM    DATA     BIT       P35
      000000A0H.6 SFRSYM    DATA     BIT       P26
      00000090H.7 SFRSYM    DATA     BIT       P17
      000000C4H   SFRSYM    DATA     WORD      CC2
      000000B0H.6 SFRSYM    DATA     BIT       P36
      000000A0H.7 SFRSYM    DATA     BIT       P27
      000000C6H   SFRSYM    DATA     WORD      CC3
      000000B0H.7 SFRSYM    DATA     BIT       P37
      000000E8H.2 SFRSYM    DATA     BIT       RFCKEN
      000000F8H   SFRSYM    DATA     BIT       WPEN
      000000DDH   SFRSYM    DATA     BYTE      CCPDATIA
      000000DEH   SFRSYM    DATA     BYTE      CCPDATIB
      00000088H.1 SFRSYM    DATA     BIT       IE0
      000000F8H.4 SFRSYM    DATA     BIT       RDYN
      00000088H.3 SFRSYM    DATA     BIT       IE1
      000000CFH   SFRSYM    DATA     BYTE      WUOPC0
      000000F0H   SFRSYM    DATA     BYTE      B
      000000E9H   SFRSYM    DATA     BYTE      MD0
LX51 LINKER/LOCATER V4.55a                                                            09/28/2014  17:29:52  PAGE 10


      000000CEH   SFRSYM    DATA     BYTE      WUOPC1
      000000A7H   SFRSYM    DATA     BYTE      MEMCON
      000000EAH   SFRSYM    DATA     BYTE      MD1
      000000D7H   SFRSYM    DATA     BYTE      RNGDAT
      000000EBH   SFRSYM    DATA     BYTE      MD2
      000000ECH   SFRSYM    DATA     BYTE      MD3
      000000EDH   SFRSYM    DATA     BYTE      MD4
      000000AFH   SFRSYM    DATA     BYTE      WDSV
      000000EEH   SFRSYM    DATA     BYTE      MD5
      000000E0H   SFRSYM    DATA     BYTE      ACC
      000000DCH   SFRSYM    DATA     BYTE      POFCON
      000000A8H.4 SFRSYM    DATA     BIT       ES0
      000000A8H.1 SFRSYM    DATA     BIT       ET0
      000000A9H   SFRSYM    DATA     BYTE      IP0
      000000A8H.3 SFRSYM    DATA     BIT       ET1
      00000088H.5 SFRSYM    DATA     BIT       TF0
      000000B9H   SFRSYM    DATA     BYTE      IP1
      000000A8H.5 SFRSYM    DATA     BIT       ET2
      00000098H   SFRSYM    DATA     BIT       RI0
      00000088H.7 SFRSYM    DATA     BIT       TF1
      000000C0H   SFRSYM    DATA     BIT       RFSPIF
      000000C0H.6 SFRSYM    DATA     BIT       TF2
      000000FCH   SFRSYM    DATA     BYTE      SPIMCON0
      000000D6H   SFRSYM    DATA     BYTE      RNGCTL
      0000008CH   SFRSYM    DATA     BYTE      TH0
      000000A8H   SFRSYM    DATA     BIT       EX0
      00000098H.1 SFRSYM    DATA     BIT       TI0
      00000088H   SFRSYM    DATA     BIT       IT0
      000000FDH   SFRSYM    DATA     BYTE      SPIMCON1
      0000008DH   SFRSYM    DATA     BYTE      TH1
      000000A8H.2 SFRSYM    DATA     BIT       EX1
      00000088H.2 SFRSYM    DATA     BIT       IT1
      000000CDH   SFRSYM    DATA     BYTE      TH2
      000000AEH   SFRSYM    DATA     BYTE      OPMCON
      000000D0H   SFRSYM    DATA     BIT       P
      00000098H.7 SFRSYM    DATA     BIT       SM0
      0000008AH   SFRSYM    DATA     BYTE      TL0
      00000098H.6 SFRSYM    DATA     BIT       SM1
      000000E4H   SFRSYM    DATA     BYTE      SPIRCON0
      0000008BH   SFRSYM    DATA     BYTE      TL1
      000000E5H   SFRSYM    DATA     BYTE      SPIRCON1
      000000CCH   SFRSYM    DATA     BYTE      TL2
      000000BCH   SFRSYM    DATA     BYTE      SPISCON0
      000000BDH   SFRSYM    DATA     BYTE      SPISCON1
      000000D0H.3 SFRSYM    DATA     BIT       RS0
      00000088H.4 SFRSYM    DATA     BIT       TR0
      000000D0H.4 SFRSYM    DATA     BIT       RS1
      000000B2H   SFRSYM    DATA     BYTE      PWMCON
      00000088H.6 SFRSYM    DATA     BIT       TR1
      000000CAH   SFRSYM    DATA     WORD      CRC
      000000A6H   SFRSYM    DATA     BYTE      INTEXP
      000000C0H.3 SFRSYM    DATA     BIT       WUPINF
      000000FAH   SFRSYM    DATA     BYTE      FCR
      000000D3H   SFRSYM    DATA     BYTE      ADCCON1
      000000D2H   SFRSYM    DATA     BYTE      ADCCON2
      00000083H   SFRSYM    DATA     BYTE      DPH
      000000D1H   SFRSYM    DATA     BYTE      ADCCON3
      000000C0H.1 SFRSYM    DATA     BIT       RFF
      00000093H   SFRSYM    DATA     BYTE      P0DIR
      00000082H   SFRSYM    DATA     BYTE      DPL
      0000009EH   SFRSYM    DATA     BYTE      P0CON
      00000099H   SFRSYM    DATA     BYTE      S0BUF
      00000094H   SFRSYM    DATA     BYTE      P1DIR
      0000009FH   SFRSYM    DATA     BYTE      P1CON
      00000095H   SFRSYM    DATA     BYTE      P2DIR
LX51 LINKER/LOCATER V4.55a                                                            09/28/2014  17:29:52  PAGE 11


      000000B8H.7 SFRSYM    DATA     BIT       EXEN2
      000000DAH   SFRSYM    DATA     BYTE      W2DAT
      00000097H   SFRSYM    DATA     BYTE      P2CON
      00000096H   SFRSYM    DATA     BYTE      P3DIR
      000000A4H   SFRSYM    DATA     BYTE      PWRDWN
      00000098H   SFRSYM    DATA     BYTE      S0CON
      0000008FH   SFRSYM    DATA     BYTE      P3CON
      000000B6H   SFRSYM    DATA     BYTE      RTC2CPT00
      000000D8H   SFRSYM    DATA     BYTE      ADCON
      000000ACH   SFRSYM    DATA     BYTE      RTC2CPT10
      000000ABH   SFRSYM    DATA     BYTE      RTC2CPT01
      000000C8H   SFRSYM    DATA     BYTE      T2CON
      00000092H   SFRSYM    DATA     BYTE      DPS
      000000F8H.5 SFRSYM    DATA     BIT       WEN
      000000F8H   SFRSYM    DATA     BYTE      FSR
      000000D4H   SFRSYM    DATA     BYTE      ADCDATH
      000000C9H   SFRSYM    DATA     BYTE      MPAGE
      000000B8H.2 SFRSYM    DATA     BIT       SPI
      000000F8H.1 SFRSYM    DATA     BIT       RDEND
      000000D5H   SFRSYM    DATA     BYTE      ADCDATL
      000000F8H.3 SFRSYM    DATA     BIT       INFEN
      000000F8H.7 SFRSYM    DATA     BIT       MCDIS
      000000C0H.5 SFRSYM    DATA     BIT       WUF
      000000C0H.4 SFRSYM    DATA     BIT       MISCF
      000000EFH   SFRSYM    DATA     BYTE      ARCON
      000000D0H.5 SFRSYM    DATA     BIT       F0
      000000F8H.6 SFRSYM    DATA     BIT       STP
      000000FEH   SFRSYM    DATA     BYTE      SPIMSTAT
      000000E8H   SFRSYM    DATA     BYTE      RFCON
      000000D0H   SFRSYM    DATA     BYTE      PSW
      00000098H.2 SFRSYM    DATA     BIT       RB80
      000000C0H   SFRSYM    DATA     BYTE      IRCON
      000000E8H.1 SFRSYM    DATA     BIT       RFCSN
      000000E6H   SFRSYM    DATA     BYTE      SPIRSTAT
      000000B3H   SFRSYM    DATA     BYTE      RTC2CON

      0100004BH   BLOCK     CODE     ---       LVL=0
      0000001DH   SYMBOL    DATA     CHAR      c
      0100004BH   LINE      CODE     ---       #12
      0100004DH   LINE      CODE     ---       #14
      0100004DH   LINE      CODE     ---       #15
      01000050H   LINE      CODE     ---       #16
      01000052H   LINE      CODE     ---       #17
      ---         BLOCKEND  ---      ---       LVL=0

      0100001FH   BLOCK     CODE     ---       LVL=0
      0100001FH   LINE      CODE     ---       #23
      0100001FH   LINE      CODE     ---       #25
      0100001FH   LINE      CODE     ---       #26
      01000022H   LINE      CODE     ---       #27
      ---         BLOCKEND  ---      ---       LVL=0

      01000026H   BLOCK     CODE     ---       LVL=0
      00000049H   SYMBOL    DATA     ---       s
      01000026H   LINE      CODE     ---       #30
      0100002CH   LINE      CODE     ---       #31
      0100002CH   LINE      CODE     ---       #32
      01000037H   LINE      CODE     ---       #33
      0100004AH   LINE      CODE     ---       #34
      ---         BLOCKEND  ---      ---       LVL=0

      010003B2H   BLOCK     CODE     ---       LVL=0
      00000022H   SYMBOL    DATA     ---       rbuf
      010003B8H   BLOCK     CODE     NEAR LAB  LVL=1
      00000025H   SYMBOL    DATA     DWORD     RXCnt
LX51 LINKER/LOCATER V4.55a                                                            09/28/2014  17:29:52  PAGE 12


      00000029H   SYMBOL    DATA     BYTE      in1
      ---         BLOCKEND  ---      ---       LVL=1
      010003B2H   LINE      CODE     ---       #35
      010003B8H   LINE      CODE     ---       #36
      010003B8H   LINE      CODE     ---       #37
      010003C1H   LINE      CODE     ---       #38
      010003C3H   LINE      CODE     ---       #45
      010003D0H   LINE      CODE     ---       #46
      010003E0H   LINE      CODE     ---       #47
      010003F0H   LINE      CODE     ---       #49
      010003F0H   LINE      CODE     ---       #50
      010003F0H   LINE      CODE     ---       #51
      01000426H   LINE      CODE     ---       #52
      01000436H   LINE      CODE     ---       #53
      01000453H   LINE      CODE     ---       #54
      01000465H   LINE      CODE     ---       #55
      01000474H   LINE      CODE     ---       #56
      01000477H   LINE      CODE     ---       #57
      01000477H   LINE      CODE     ---       #59
      ---         BLOCKEND  ---      ---       LVL=0

      01000528H   BLOCK     CODE     ---       LVL=0
      01000528H   BLOCK     CODE     NEAR LAB  LVL=1
      00000008H   SYMBOL    DATA     BYTE      i
      ---         BLOCKEND  ---      ---       LVL=1
      01000528H   LINE      CODE     ---       #64
      01000528H   LINE      CODE     ---       #65
      01000528H   LINE      CODE     ---       #66
      0100052BH   LINE      CODE     ---       #69
      0100052DH   LINE      CODE     ---       #70
      01000530H   LINE      CODE     ---       #71
      01000533H   LINE      CODE     ---       #74
      01000538H   LINE      CODE     ---       #77
      0100053EH   LINE      CODE     ---       #78
      0100053EH   LINE      CODE     ---       #79
      01000540H   LINE      CODE     ---       #80
      01000547H   LINE      CODE     ---       #82
      01000549H   LINE      CODE     ---       #84
      01000549H   LINE      CODE     ---       #86
      0100054DH   LINE      CODE     ---       #87
      01000574H   LINE      CODE     ---       #88
      01000584H   LINE      CODE     ---       #89
      01000597H   LINE      CODE     ---       #90
      010005A9H   LINE      CODE     ---       #92
      010005B2H   LINE      CODE     ---       #93
      010005B5H   LINE      CODE     ---       #95
      010005B5H   LINE      CODE     ---       #100
      010005C8H   LINE      CODE     ---       #105
      ---         BLOCKEND  ---      ---       LVL=0

      0100078AH   BLOCK     CODE     ---       LVL=0
      0100078AH   LINE      CODE     ---       #107
      010007A7H   LINE      CODE     ---       #109
      010007AAH   LINE      CODE     ---       #110
      010007B1H   LINE      CODE     ---       #111
      010007B6H   LINE      CODE     ---       #112
      010007BBH   LINE      CODE     ---       #113
      ---         BLOCKEND  ---      ---       LVL=0

      ---         MODULE    ---      ---       HAL_DELAY
      01000938H   PUBLIC    CODE     ---       _delay_ms
      01000910H   PUBLIC    CODE     ---       _delay_us

      01000905H   BLOCK     CODE     ---       LVL=0
      ---         BLOCKEND  ---      ---       LVL=0
LX51 LINKER/LOCATER V4.55a                                                            09/28/2014  17:29:52  PAGE 13



      01000910H   BLOCK     CODE     ---       LVL=0
      00000006H   SYMBOL    DATA     WORD      us
      01000910H   LINE      CODE     ---       #37
      01000910H   LINE      CODE     ---       #38
      01000910H   LINE      CODE     ---       #40
      01000910H   LINE      CODE     ---       #41
      01000911H   LINE      CODE     ---       #42
      01000912H   LINE      CODE     ---       #43
      01000913H   LINE      CODE     ---       #44
      01000914H   LINE      CODE     ---       #45
      01000915H   LINE      CODE     ---       #46
      0100091EH   LINE      CODE     ---       #47
      ---         BLOCKEND  ---      ---       LVL=0

      01000938H   BLOCK     CODE     ---       LVL=0
      00000004H   SYMBOL    DATA     WORD      ms
      01000938H   LINE      CODE     ---       #49
      0100093CH   LINE      CODE     ---       #50
      0100093CH   LINE      CODE     ---       #52
      0100093CH   LINE      CODE     ---       #53
      0100093CH   LINE      CODE     ---       #54
      0100093FH   LINE      CODE     ---       #55
      0100093FH   LINE      CODE     ---       #56
      01000942H   LINE      CODE     ---       #57
      0100094BH   LINE      CODE     ---       #58
      ---         BLOCKEND  ---      ---       LVL=0

      ---         MODULE    ---      ---       HAL_SPI
      0000001FH   PUBLIC    DATA     BYTE      sstat_shadow
      01000A0CH   PUBLIC    CODE     ---       _hal_spi_slave_preload
      01000960H   PUBLIC    CODE     ---       hal_spi_slave_read
      010009AFH   PUBLIC    CODE     ---       spi_slave_data_ready
      01000003H   PUBLIC    CODE     ---       hal_spi_slave_csn_high
      010009F2H   PUBLIC    CODE     ---       _hal_spi_slave_rw
      01000865H   PUBLIC    CODE     ---       _hal_spi_slave_init
      010009D5H   PUBLIC    CODE     ---       _hal_spi_master_read_write
      010006EAH   PUBLIC    CODE     ---       _hal_spi_master_init
      00000098H.3 SFRSYM    DATA     BIT       TB80
      000000BEH   SFRSYM    DATA     BYTE      SPISSTAT
      000000C8H   SFRSYM    DATA     BIT       T2I0
      000000C3H   SFRSYM    DATA     BYTE      CCH1
      00000080H   SFRSYM    DATA     BYTE      P0
      000000C8H.1 SFRSYM    DATA     BIT       T2I1
      000000DFH   SFRSYM    DATA     BYTE      CCPDATO
      000000C5H   SFRSYM    DATA     BYTE      CCH2
      00000090H   SFRSYM    DATA     BYTE      P1
      000000C7H   SFRSYM    DATA     BYTE      CCH3
      000000A0H   SFRSYM    DATA     BYTE      P2
      00000098H.5 SFRSYM    DATA     BIT       SM20
      000000B0H   SFRSYM    DATA     BYTE      P3
      000000D0H.6 SFRSYM    DATA     BIT       AC
      000000C2H   SFRSYM    DATA     BYTE      CCL1
      000000C4H   SFRSYM    DATA     BYTE      CCL2
      000000D8H.7 SFRSYM    DATA     BIT       BD
      000000B8H   SFRSYM    DATA     BIT       RFSPI
      000000A8H.7 SFRSYM    DATA     BIT       EA
      000000CCH   SFRSYM    DATA     WORD      T2
      000000C6H   SFRSYM    DATA     BYTE      CCL3
      000000B7H   SFRSYM    DATA     BYTE      SPISRDSZ
      000000C8H.3 SFRSYM    DATA     BIT       T2R0
      000000C8H.4 SFRSYM    DATA     BIT       T2R1
      000000A8H   SFRSYM    DATA     BYTE      IEN0
      000000B8H   SFRSYM    DATA     BYTE      IEN1
      000000A5H   SFRSYM    DATA     BYTE      WUCON
LX51 LINKER/LOCATER V4.55a                                                            09/28/2014  17:29:52  PAGE 14


      00000085H   SFRSYM    DATA     BYTE      DPH1
      000000DBH   SFRSYM    DATA     BYTE      COMPCON
      000000A3H   SFRSYM    DATA     BYTE      CLKCTRL
      00000084H   SFRSYM    DATA     BYTE      DPL1
      000000C8H.5 SFRSYM    DATA     BIT       I2FR
      000000B8H.3 SFRSYM    DATA     BIT       WUPIN
      000000C8H.6 SFRSYM    DATA     BIT       I3FR
      000000FFH   SFRSYM    DATA     BYTE      SPIMDAT
      000000C0H.7 SFRSYM    DATA     BIT       EXF2
      00000098H.4 SFRSYM    DATA     BIT       REN0
      000000C8H.2 SFRSYM    DATA     BIT       T2CM
      000000B8H.1 SFRSYM    DATA     BIT       RF
      000000B8H.5 SFRSYM    DATA     BIT       WUIRQ
      000000E7H   SFRSYM    DATA     BYTE      SPIRDAT
      000000C1H   SFRSYM    DATA     BYTE      CCEN
      000000E2H   SFRSYM    DATA     BYTE      W2CON0
      000000BFH   SFRSYM    DATA     BYTE      SPISDAT
      000000D0H.7 SFRSYM    DATA     BIT       CY
      000000E1H   SFRSYM    DATA     BYTE      W2CON1
      000000FBH   SFRSYM    DATA     BYTE      FDCR
      000000E8H   SFRSYM    DATA     BIT       RFCE
      000000CBH   SFRSYM    DATA     BYTE      CRCH
      00000081H   SFRSYM    DATA     BYTE      SP
      000000D0H.2 SFRSYM    DATA     BIT       OV
      000000CAH   SFRSYM    DATA     BYTE      CRCL
      000000ADH   SFRSYM    DATA     BYTE      CLKLFCTRL
      000000B1H   SFRSYM    DATA     BYTE      RSTREAS
      000000C8H.7 SFRSYM    DATA     BIT       T2PS
      000000F9H   SFRSYM    DATA     BYTE      FPCR
      000000B8H.4 SFRSYM    DATA     BIT       MISC
      000000A1H   SFRSYM    DATA     BYTE      PWMDC0
      000000B4H   SFRSYM    DATA     BYTE      RTC2CMP0
      000000A2H   SFRSYM    DATA     BYTE      PWMDC1
      000000B5H   SFRSYM    DATA     BYTE      RTC2CMP1
      00000080H   SFRSYM    DATA     BIT       P00
      000000BAH   SFRSYM    DATA     BYTE      S0RELH
      00000090H   SFRSYM    DATA     BIT       P10
      00000080H.1 SFRSYM    DATA     BIT       P01
      00000087H   SFRSYM    DATA     BYTE      PCON
      000000A0H   SFRSYM    DATA     BIT       P20
      00000090H.1 SFRSYM    DATA     BIT       P11
      00000080H.2 SFRSYM    DATA     BIT       P02
      000000B0H   SFRSYM    DATA     BIT       P30
      000000A0H.1 SFRSYM    DATA     BIT       P21
      00000090H.2 SFRSYM    DATA     BIT       P12
      00000080H.3 SFRSYM    DATA     BIT       P03
      000000C0H.2 SFRSYM    DATA     BIT       SPIF
      000000F8H.2 SFRSYM    DATA     BIT       RDIS
      000000B0H.1 SFRSYM    DATA     BIT       P31
      000000A0H.2 SFRSYM    DATA     BIT       P22
      00000090H.3 SFRSYM    DATA     BIT       P13
      00000080H.4 SFRSYM    DATA     BIT       P04
      000000AAH   SFRSYM    DATA     BYTE      S0RELL
      000000B0H.2 SFRSYM    DATA     BIT       P32
      000000A0H.3 SFRSYM    DATA     BIT       P23
      00000090H.4 SFRSYM    DATA     BIT       P14
      00000080H.5 SFRSYM    DATA     BIT       P05
      000000D9H   SFRSYM    DATA     BYTE      W2SADR
      00000089H   SFRSYM    DATA     BYTE      TMOD
      00000088H   SFRSYM    DATA     BYTE      TCON
      000000B0H.3 SFRSYM    DATA     BIT       P33
      000000A0H.4 SFRSYM    DATA     BIT       P24
      00000090H.5 SFRSYM    DATA     BIT       P15
      00000080H.6 SFRSYM    DATA     BIT       P06
      000000B0H.4 SFRSYM    DATA     BIT       P34
LX51 LINKER/LOCATER V4.55a                                                            09/28/2014  17:29:52  PAGE 15


      000000A0H.5 SFRSYM    DATA     BIT       P25
      00000090H.6 SFRSYM    DATA     BIT       P16
      00000080H.7 SFRSYM    DATA     BIT       P07
      000000C2H   SFRSYM    DATA     WORD      CC1
      000000B0H.5 SFRSYM    DATA     BIT       P35
      000000A0H.6 SFRSYM    DATA     BIT       P26
      00000090H.7 SFRSYM    DATA     BIT       P17
      000000C4H   SFRSYM    DATA     WORD      CC2
      000000B0H.6 SFRSYM    DATA     BIT       P36
      000000A0H.7 SFRSYM    DATA     BIT       P27
      000000C6H   SFRSYM    DATA     WORD      CC3
      000000B0H.7 SFRSYM    DATA     BIT       P37
      000000E8H.2 SFRSYM    DATA     BIT       RFCKEN
      000000F8H   SFRSYM    DATA     BIT       WPEN
      000000DDH   SFRSYM    DATA     BYTE      CCPDATIA
      000000DEH   SFRSYM    DATA     BYTE      CCPDATIB
      00000088H.1 SFRSYM    DATA     BIT       IE0
      000000F8H.4 SFRSYM    DATA     BIT       RDYN
      00000088H.3 SFRSYM    DATA     BIT       IE1
      000000CFH   SFRSYM    DATA     BYTE      WUOPC0
      000000F0H   SFRSYM    DATA     BYTE      B
      000000E9H   SFRSYM    DATA     BYTE      MD0
      000000CEH   SFRSYM    DATA     BYTE      WUOPC1
      000000A7H   SFRSYM    DATA     BYTE      MEMCON
      000000EAH   SFRSYM    DATA     BYTE      MD1
      000000D7H   SFRSYM    DATA     BYTE      RNGDAT
      000000EBH   SFRSYM    DATA     BYTE      MD2
      000000ECH   SFRSYM    DATA     BYTE      MD3
      000000EDH   SFRSYM    DATA     BYTE      MD4
      000000AFH   SFRSYM    DATA     BYTE      WDSV
      000000EEH   SFRSYM    DATA     BYTE      MD5
      000000E0H   SFRSYM    DATA     BYTE      ACC
      000000DCH   SFRSYM    DATA     BYTE      POFCON
      000000A8H.4 SFRSYM    DATA     BIT       ES0
      000000A8H.1 SFRSYM    DATA     BIT       ET0
      000000A9H   SFRSYM    DATA     BYTE      IP0
      000000A8H.3 SFRSYM    DATA     BIT       ET1
      00000088H.5 SFRSYM    DATA     BIT       TF0
      000000B9H   SFRSYM    DATA     BYTE      IP1
      000000A8H.5 SFRSYM    DATA     BIT       ET2
      00000098H   SFRSYM    DATA     BIT       RI0
      00000088H.7 SFRSYM    DATA     BIT       TF1
      000000C0H   SFRSYM    DATA     BIT       RFSPIF
      000000C0H.6 SFRSYM    DATA     BIT       TF2
      000000FCH   SFRSYM    DATA     BYTE      SPIMCON0
      000000D6H   SFRSYM    DATA     BYTE      RNGCTL
      0000008CH   SFRSYM    DATA     BYTE      TH0
      000000A8H   SFRSYM    DATA     BIT       EX0
      00000098H.1 SFRSYM    DATA     BIT       TI0
      00000088H   SFRSYM    DATA     BIT       IT0
      000000FDH   SFRSYM    DATA     BYTE      SPIMCON1
      0000008DH   SFRSYM    DATA     BYTE      TH1
      000000A8H.2 SFRSYM    DATA     BIT       EX1
      00000088H.2 SFRSYM    DATA     BIT       IT1
      000000CDH   SFRSYM    DATA     BYTE      TH2
      000000AEH   SFRSYM    DATA     BYTE      OPMCON
      000000D0H   SFRSYM    DATA     BIT       P
      00000098H.7 SFRSYM    DATA     BIT       SM0
      0000008AH   SFRSYM    DATA     BYTE      TL0
      00000098H.6 SFRSYM    DATA     BIT       SM1
      000000E4H   SFRSYM    DATA     BYTE      SPIRCON0
      0000008BH   SFRSYM    DATA     BYTE      TL1
      000000E5H   SFRSYM    DATA     BYTE      SPIRCON1
      000000CCH   SFRSYM    DATA     BYTE      TL2
      000000BCH   SFRSYM    DATA     BYTE      SPISCON0
LX51 LINKER/LOCATER V4.55a                                                            09/28/2014  17:29:52  PAGE 16


      000000BDH   SFRSYM    DATA     BYTE      SPISCON1
      000000D0H.3 SFRSYM    DATA     BIT       RS0
      00000088H.4 SFRSYM    DATA     BIT       TR0
      000000D0H.4 SFRSYM    DATA     BIT       RS1
      000000B2H   SFRSYM    DATA     BYTE      PWMCON
      00000088H.6 SFRSYM    DATA     BIT       TR1
      000000CAH   SFRSYM    DATA     WORD      CRC
      000000A6H   SFRSYM    DATA     BYTE      INTEXP
      000000C0H.3 SFRSYM    DATA     BIT       WUPINF
      000000FAH   SFRSYM    DATA     BYTE      FCR
      000000D3H   SFRSYM    DATA     BYTE      ADCCON1
      000000D2H   SFRSYM    DATA     BYTE      ADCCON2
      00000083H   SFRSYM    DATA     BYTE      DPH
      000000D1H   SFRSYM    DATA     BYTE      ADCCON3
      000000C0H.1 SFRSYM    DATA     BIT       RFF
      00000093H   SFRSYM    DATA     BYTE      P0DIR
      00000082H   SFRSYM    DATA     BYTE      DPL
      0000009EH   SFRSYM    DATA     BYTE      P0CON
      00000099H   SFRSYM    DATA     BYTE      S0BUF
      00000094H   SFRSYM    DATA     BYTE      P1DIR
      0000009FH   SFRSYM    DATA     BYTE      P1CON
      00000095H   SFRSYM    DATA     BYTE      P2DIR
      000000B8H.7 SFRSYM    DATA     BIT       EXEN2
      000000DAH   SFRSYM    DATA     BYTE      W2DAT
      00000097H   SFRSYM    DATA     BYTE      P2CON
      00000096H   SFRSYM    DATA     BYTE      P3DIR
      000000A4H   SFRSYM    DATA     BYTE      PWRDWN
      00000098H   SFRSYM    DATA     BYTE      S0CON
      0000008FH   SFRSYM    DATA     BYTE      P3CON
      000000B6H   SFRSYM    DATA     BYTE      RTC2CPT00
      000000D8H   SFRSYM    DATA     BYTE      ADCON
      000000ACH   SFRSYM    DATA     BYTE      RTC2CPT10
      000000ABH   SFRSYM    DATA     BYTE      RTC2CPT01
      000000C8H   SFRSYM    DATA     BYTE      T2CON
      00000092H   SFRSYM    DATA     BYTE      DPS
      000000F8H.5 SFRSYM    DATA     BIT       WEN
      000000F8H   SFRSYM    DATA     BYTE      FSR
      000000D4H   SFRSYM    DATA     BYTE      ADCDATH
      000000C9H   SFRSYM    DATA     BYTE      MPAGE
      000000B8H.2 SFRSYM    DATA     BIT       SPI
      000000F8H.1 SFRSYM    DATA     BIT       RDEND
      000000D5H   SFRSYM    DATA     BYTE      ADCDATL
      000000F8H.3 SFRSYM    DATA     BIT       INFEN
      000000F8H.7 SFRSYM    DATA     BIT       MCDIS
      000000C0H.5 SFRSYM    DATA     BIT       WUF
      000000C0H.4 SFRSYM    DATA     BIT       MISCF
      000000EFH   SFRSYM    DATA     BYTE      ARCON
      000000D0H.5 SFRSYM    DATA     BIT       F0
      000000F8H.6 SFRSYM    DATA     BIT       STP
      000000FEH   SFRSYM    DATA     BYTE      SPIMSTAT
      000000E8H   SFRSYM    DATA     BYTE      RFCON
      000000D0H   SFRSYM    DATA     BYTE      PSW
      00000098H.2 SFRSYM    DATA     BIT       RB80
      000000C0H   SFRSYM    DATA     BYTE      IRCON
      000000E8H.1 SFRSYM    DATA     BIT       RFCSN
      000000E6H   SFRSYM    DATA     BYTE      SPIRSTAT
      000000B3H   SFRSYM    DATA     BYTE      RTC2CON

      010006EAH   BLOCK     CODE     ---       LVL=0
      00000007H   SYMBOL    DATA     BYTE      ck
      00000005H   SYMBOL    DATA     BYTE      mode
      00000003H   SYMBOL    DATA     BYTE      bo
      010006EAH   LINE      CODE     ---       #22
      010006EAH   LINE      CODE     ---       #23
      010006EAH   LINE      CODE     ---       #24
LX51 LINKER/LOCATER V4.55a                                                            09/28/2014  17:29:52  PAGE 17


      010006EDH   LINE      CODE     ---       #25
      010006FEH   LINE      CODE     ---       #26
      010006FEH   LINE      CODE     ---       #27
      010006FEH   LINE      CODE     ---       #28
      010006FEH   LINE      CODE     ---       #29
      01000700H   LINE      CODE     ---       #30
      01000700H   LINE      CODE     ---       #31
      01000703H   LINE      CODE     ---       #32
      01000705H   LINE      CODE     ---       #33
      01000705H   LINE      CODE     ---       #34
      01000708H   LINE      CODE     ---       #35
      0100070AH   LINE      CODE     ---       #36
      0100070AH   LINE      CODE     ---       #37
      0100070DH   LINE      CODE     ---       #38
      0100070FH   LINE      CODE     ---       #39
      0100070FH   LINE      CODE     ---       #40
      01000712H   LINE      CODE     ---       #41
      01000714H   LINE      CODE     ---       #42
      01000714H   LINE      CODE     ---       #43
      01000714H   LINE      CODE     ---       #44
      01000717H   LINE      CODE     ---       #45
      01000717H   LINE      CODE     ---       #46
      01000717H   LINE      CODE     ---       #47
      01000723H   LINE      CODE     ---       #48
      01000723H   LINE      CODE     ---       #49
      01000723H   LINE      CODE     ---       #50
      01000723H   LINE      CODE     ---       #51
      01000725H   LINE      CODE     ---       #52
      01000725H   LINE      CODE     ---       #53
      01000728H   LINE      CODE     ---       #54
      0100072AH   LINE      CODE     ---       #55
      0100072AH   LINE      CODE     ---       #56
      0100072DH   LINE      CODE     ---       #57
      0100072FH   LINE      CODE     ---       #58
      0100072FH   LINE      CODE     ---       #59
      01000732H   LINE      CODE     ---       #60
      01000732H   LINE      CODE     ---       #61
      01000732H   LINE      CODE     ---       #63
      01000735H   LINE      CODE     ---       #64
      01000735H   LINE      CODE     ---       #65
      01000738H   LINE      CODE     ---       #66
      01000738H   LINE      CODE     ---       #68
      0100073BH   LINE      CODE     ---       #69
      ---         BLOCKEND  ---      ---       LVL=0

      010009D5H   BLOCK     CODE     ---       LVL=0
      00000007H   SYMBOL    DATA     BYTE      pLoad
      010009D5H   LINE      CODE     ---       #71
      010009D5H   LINE      CODE     ---       #72
      010009D5H   LINE      CODE     ---       #73
      010009D7H   LINE      CODE     ---       #74
      010009DCH   LINE      CODE     ---       #76
      010009DEH   LINE      CODE     ---       #77
      ---         BLOCKEND  ---      ---       LVL=0

      01000865H   BLOCK     CODE     ---       LVL=0
      00000007H   SYMBOL    DATA     BYTE      mode
      00000005H   SYMBOL    DATA     BYTE      byte_order
      01000865H   BLOCK     CODE     NEAR LAB  LVL=1
      00000009H   SYMBOL    DATA     BYTE      temp
      ---         BLOCKEND  ---      ---       LVL=1
      01000865H   LINE      CODE     ---       #79
      01000865H   LINE      CODE     ---       #80
      01000865H   LINE      CODE     ---       #82
      01000868H   LINE      CODE     ---       #83
LX51 LINKER/LOCATER V4.55a                                                            09/28/2014  17:29:52  PAGE 18


      0100086AH   LINE      CODE     ---       #84
      0100086DH   LINE      CODE     ---       #86
      01000879H   LINE      CODE     ---       #87
      01000879H   LINE      CODE     ---       #88
      01000879H   LINE      CODE     ---       #89
      01000879H   LINE      CODE     ---       #90
      0100087BH   LINE      CODE     ---       #91
      0100087BH   LINE      CODE     ---       #92
      0100087EH   LINE      CODE     ---       #93
      01000880H   LINE      CODE     ---       #94
      01000880H   LINE      CODE     ---       #95
      01000883H   LINE      CODE     ---       #96
      01000885H   LINE      CODE     ---       #97
      01000885H   LINE      CODE     ---       #98
      01000888H   LINE      CODE     ---       #99
      01000888H   LINE      CODE     ---       #100
      01000888H   LINE      CODE     ---       #101
      01000893H   LINE      CODE     ---       #104
      01000896H   LINE      CODE     ---       #105
      0100089BH   LINE      CODE     ---       #106
      010008A0H   LINE      CODE     ---       #107
      ---         BLOCKEND  ---      ---       LVL=0

      010009F2H   BLOCK     CODE     ---       LVL=0
      00000007H   SYMBOL    DATA     BYTE      pLoad
      010009F2H   LINE      CODE     ---       #109
      010009F2H   LINE      CODE     ---       #110
      010009F2H   LINE      CODE     ---       #111
      010009F5H   LINE      CODE     ---       #112
      010009F8H   LINE      CODE     ---       #114
      ---         BLOCKEND  ---      ---       LVL=0

      01000003H   BLOCK     CODE     ---       LVL=0
      01000003H   BLOCK     CODE     NEAR LAB  LVL=1
      0000001EH   SYMBOL    DATA     BYTE      csn_high
      ---         BLOCKEND  ---      ---       LVL=1
      01000003H   LINE      CODE     ---       #118
      01000003H   LINE      CODE     ---       #119
      01000003H   LINE      CODE     ---       #121
      01000007H   LINE      CODE     ---       #123
      0100000CH   LINE      CODE     ---       #124
      0100000CH   LINE      CODE     ---       #125
      0100000FH   LINE      CODE     ---       #126
      01000011H   LINE      CODE     ---       #128
      01000011H   LINE      CODE     ---       #129
      01000016H   LINE      CODE     ---       #130
      01000016H   LINE      CODE     ---       #131
      01000019H   LINE      CODE     ---       #132
      01000019H   LINE      CODE     ---       #133
      01000019H   LINE      CODE     ---       #134
      0100001CH   LINE      CODE     ---       #136
      0100001EH   LINE      CODE     ---       #137
      ---         BLOCKEND  ---      ---       LVL=0

      010009AFH   BLOCK     CODE     ---       LVL=0
      010009AFH   LINE      CODE     ---       #139
      010009AFH   LINE      CODE     ---       #140
      010009AFH   LINE      CODE     ---       #141
      010009B3H   LINE      CODE     ---       #143
      010009BAH   LINE      CODE     ---       #144
      010009BAH   LINE      CODE     ---       #145
      010009BCH   LINE      CODE     ---       #146
      010009BCH   LINE      CODE     ---       #148
      010009BCH   LINE      CODE     ---       #149
      010009BCH   LINE      CODE     ---       #150
LX51 LINKER/LOCATER V4.55a                                                            09/28/2014  17:29:52  PAGE 19


      010009BCH   LINE      CODE     ---       #151
      ---         BLOCKEND  ---      ---       LVL=0

      01000960H   BLOCK     CODE     ---       LVL=0
      01000960H   LINE      CODE     ---       #153
      01000960H   LINE      CODE     ---       #154
      01000960H   LINE      CODE     ---       #155
      01000965H   LINE      CODE     ---       #156
      01000965H   LINE      CODE     ---       #157
      01000969H   LINE      CODE     ---       #158
      0100096BH   LINE      CODE     ---       #159
      0100096EH   LINE      CODE     ---       #161
      01000970H   LINE      CODE     ---       #162
      ---         BLOCKEND  ---      ---       LVL=0

      01000A0CH   BLOCK     CODE     ---       LVL=0
      00000007H   SYMBOL    DATA     BYTE      pLoad
      01000A0CH   LINE      CODE     ---       #164
      01000A0CH   LINE      CODE     ---       #165
      01000A0CH   LINE      CODE     ---       #166
      01000A0EH   LINE      CODE     ---       #167
      ---         BLOCKEND  ---      ---       LVL=0

      ---         MODULE    ---      ---       HAL_UART
      0100091FH   PUBLIC    CODE     ---       hal_uart_getchar
      010009E9H   PUBLIC    CODE     ---       hal_uart_tx_complete
      01000A0FH   PUBLIC    CODE     ---       hal_uart_chars_available
      010008A1H   PUBLIC    CODE     ---       _hal_uart_putchar
      0100081FH   PUBLIC    CODE     ---       _hal_uart_init
      010007D6H   PUBLIC    CODE     ---       uart0_isr
      00000098H.3 SFRSYM    DATA     BIT       TB80
      000000BEH   SFRSYM    DATA     BYTE      SPISSTAT
      000000C8H   SFRSYM    DATA     BIT       T2I0
      000000C3H   SFRSYM    DATA     BYTE      CCH1
      00000080H   SFRSYM    DATA     BYTE      P0
      000000C8H.1 SFRSYM    DATA     BIT       T2I1
      000000DFH   SFRSYM    DATA     BYTE      CCPDATO
      000000C5H   SFRSYM    DATA     BYTE      CCH2
      00000090H   SFRSYM    DATA     BYTE      P1
      000000C7H   SFRSYM    DATA     BYTE      CCH3
      000000A0H   SFRSYM    DATA     BYTE      P2
      00000098H.5 SFRSYM    DATA     BIT       SM20
      000000B0H   SFRSYM    DATA     BYTE      P3
      000000D0H.6 SFRSYM    DATA     BIT       AC
      000000C2H   SFRSYM    DATA     BYTE      CCL1
      000000C4H   SFRSYM    DATA     BYTE      CCL2
      000000D8H.7 SFRSYM    DATA     BIT       BD
      000000B8H   SFRSYM    DATA     BIT       RFSPI
      000000A8H.7 SFRSYM    DATA     BIT       EA
      000000CCH   SFRSYM    DATA     WORD      T2
      000000C6H   SFRSYM    DATA     BYTE      CCL3
      000000B7H   SFRSYM    DATA     BYTE      SPISRDSZ
      000000C8H.3 SFRSYM    DATA     BIT       T2R0
      000000C8H.4 SFRSYM    DATA     BIT       T2R1
      000000A8H   SFRSYM    DATA     BYTE      IEN0
      000000B8H   SFRSYM    DATA     BYTE      IEN1
      000000A5H   SFRSYM    DATA     BYTE      WUCON
      00000085H   SFRSYM    DATA     BYTE      DPH1
      000000DBH   SFRSYM    DATA     BYTE      COMPCON
      000000A3H   SFRSYM    DATA     BYTE      CLKCTRL
      00000084H   SFRSYM    DATA     BYTE      DPL1
      000000C8H.5 SFRSYM    DATA     BIT       I2FR
      000000B8H.3 SFRSYM    DATA     BIT       WUPIN
      000000C8H.6 SFRSYM    DATA     BIT       I3FR
      000000FFH   SFRSYM    DATA     BYTE      SPIMDAT
LX51 LINKER/LOCATER V4.55a                                                            09/28/2014  17:29:52  PAGE 20


      000000C0H.7 SFRSYM    DATA     BIT       EXF2
      00000098H.4 SFRSYM    DATA     BIT       REN0
      000000C8H.2 SFRSYM    DATA     BIT       T2CM
      000000B8H.1 SFRSYM    DATA     BIT       RF
      000000B8H.5 SFRSYM    DATA     BIT       WUIRQ
      000000E7H   SFRSYM    DATA     BYTE      SPIRDAT
      000000C1H   SFRSYM    DATA     BYTE      CCEN
      000000E2H   SFRSYM    DATA     BYTE      W2CON0
      000000BFH   SFRSYM    DATA     BYTE      SPISDAT
      000000D0H.7 SFRSYM    DATA     BIT       CY
      000000E1H   SFRSYM    DATA     BYTE      W2CON1
      000000FBH   SFRSYM    DATA     BYTE      FDCR
      000000E8H   SFRSYM    DATA     BIT       RFCE
      000000CBH   SFRSYM    DATA     BYTE      CRCH
      00000081H   SFRSYM    DATA     BYTE      SP
      000000D0H.2 SFRSYM    DATA     BIT       OV
      000000CAH   SFRSYM    DATA     BYTE      CRCL
      000000ADH   SFRSYM    DATA     BYTE      CLKLFCTRL
      000000B1H   SFRSYM    DATA     BYTE      RSTREAS
      000000C8H.7 SFRSYM    DATA     BIT       T2PS
      000000F9H   SFRSYM    DATA     BYTE      FPCR
      000000B8H.4 SFRSYM    DATA     BIT       MISC
      000000A1H   SFRSYM    DATA     BYTE      PWMDC0
      000000B4H   SFRSYM    DATA     BYTE      RTC2CMP0
      000000A2H   SFRSYM    DATA     BYTE      PWMDC1
      000000B5H   SFRSYM    DATA     BYTE      RTC2CMP1
      00000080H   SFRSYM    DATA     BIT       P00
      000000BAH   SFRSYM    DATA     BYTE      S0RELH
      00000090H   SFRSYM    DATA     BIT       P10
      00000080H.1 SFRSYM    DATA     BIT       P01
      00000087H   SFRSYM    DATA     BYTE      PCON
      000000A0H   SFRSYM    DATA     BIT       P20
      00000090H.1 SFRSYM    DATA     BIT       P11
      00000080H.2 SFRSYM    DATA     BIT       P02
      000000B0H   SFRSYM    DATA     BIT       P30
      000000A0H.1 SFRSYM    DATA     BIT       P21
      00000090H.2 SFRSYM    DATA     BIT       P12
      00000080H.3 SFRSYM    DATA     BIT       P03
      000000C0H.2 SFRSYM    DATA     BIT       SPIF
      000000F8H.2 SFRSYM    DATA     BIT       RDIS
      000000B0H.1 SFRSYM    DATA     BIT       P31
      000000A0H.2 SFRSYM    DATA     BIT       P22
      00000090H.3 SFRSYM    DATA     BIT       P13
      00000080H.4 SFRSYM    DATA     BIT       P04
      000000AAH   SFRSYM    DATA     BYTE      S0RELL
      000000B0H.2 SFRSYM    DATA     BIT       P32
      000000A0H.3 SFRSYM    DATA     BIT       P23
      00000090H.4 SFRSYM    DATA     BIT       P14
      00000080H.5 SFRSYM    DATA     BIT       P05
      000000D9H   SFRSYM    DATA     BYTE      W2SADR
      00000089H   SFRSYM    DATA     BYTE      TMOD
      00000088H   SFRSYM    DATA     BYTE      TCON
      000000B0H.3 SFRSYM    DATA     BIT       P33
      000000A0H.4 SFRSYM    DATA     BIT       P24
      00000090H.5 SFRSYM    DATA     BIT       P15
      00000080H.6 SFRSYM    DATA     BIT       P06
      000000B0H.4 SFRSYM    DATA     BIT       P34
      000000A0H.5 SFRSYM    DATA     BIT       P25
      00000090H.6 SFRSYM    DATA     BIT       P16
      00000080H.7 SFRSYM    DATA     BIT       P07
      000000C2H   SFRSYM    DATA     WORD      CC1
      000000B0H.5 SFRSYM    DATA     BIT       P35
      000000A0H.6 SFRSYM    DATA     BIT       P26
      00000090H.7 SFRSYM    DATA     BIT       P17
      000000C4H   SFRSYM    DATA     WORD      CC2
LX51 LINKER/LOCATER V4.55a                                                            09/28/2014  17:29:52  PAGE 21


      000000B0H.6 SFRSYM    DATA     BIT       P36
      000000A0H.7 SFRSYM    DATA     BIT       P27
      000000C6H   SFRSYM    DATA     WORD      CC3
      000000B0H.7 SFRSYM    DATA     BIT       P37
      000000E8H.2 SFRSYM    DATA     BIT       RFCKEN
      000000F8H   SFRSYM    DATA     BIT       WPEN
      000000DDH   SFRSYM    DATA     BYTE      CCPDATIA
      000000DEH   SFRSYM    DATA     BYTE      CCPDATIB
      00000088H.1 SFRSYM    DATA     BIT       IE0
      000000F8H.4 SFRSYM    DATA     BIT       RDYN
      00000088H.3 SFRSYM    DATA     BIT       IE1
      000000CFH   SFRSYM    DATA     BYTE      WUOPC0
      000000F0H   SFRSYM    DATA     BYTE      B
      000000E9H   SFRSYM    DATA     BYTE      MD0
      000000CEH   SFRSYM    DATA     BYTE      WUOPC1
      000000A7H   SFRSYM    DATA     BYTE      MEMCON
      000000EAH   SFRSYM    DATA     BYTE      MD1
      000000D7H   SFRSYM    DATA     BYTE      RNGDAT
      000000EBH   SFRSYM    DATA     BYTE      MD2
      000000ECH   SFRSYM    DATA     BYTE      MD3
      000000EDH   SFRSYM    DATA     BYTE      MD4
      000000AFH   SFRSYM    DATA     BYTE      WDSV
      000000EEH   SFRSYM    DATA     BYTE      MD5
      000000E0H   SFRSYM    DATA     BYTE      ACC
      000000DCH   SFRSYM    DATA     BYTE      POFCON
      000000A8H.4 SFRSYM    DATA     BIT       ES0
      000000A8H.1 SFRSYM    DATA     BIT       ET0
      000000A9H   SFRSYM    DATA     BYTE      IP0
      000000A8H.3 SFRSYM    DATA     BIT       ET1
      00000088H.5 SFRSYM    DATA     BIT       TF0
      000000B9H   SFRSYM    DATA     BYTE      IP1
      000000A8H.5 SFRSYM    DATA     BIT       ET2
      00000098H   SFRSYM    DATA     BIT       RI0
      00000088H.7 SFRSYM    DATA     BIT       TF1
      000000C0H   SFRSYM    DATA     BIT       RFSPIF
      000000C0H.6 SFRSYM    DATA     BIT       TF2
      000000FCH   SFRSYM    DATA     BYTE      SPIMCON0
      000000D6H   SFRSYM    DATA     BYTE      RNGCTL
      0000008CH   SFRSYM    DATA     BYTE      TH0
      000000A8H   SFRSYM    DATA     BIT       EX0
      00000098H.1 SFRSYM    DATA     BIT       TI0
      00000088H   SFRSYM    DATA     BIT       IT0
      000000FDH   SFRSYM    DATA     BYTE      SPIMCON1
      0000008DH   SFRSYM    DATA     BYTE      TH1
      000000A8H.2 SFRSYM    DATA     BIT       EX1
      00000088H.2 SFRSYM    DATA     BIT       IT1
      000000CDH   SFRSYM    DATA     BYTE      TH2
      000000AEH   SFRSYM    DATA     BYTE      OPMCON
      000000D0H   SFRSYM    DATA     BIT       P
      00000098H.7 SFRSYM    DATA     BIT       SM0
      0000008AH   SFRSYM    DATA     BYTE      TL0
      00000098H.6 SFRSYM    DATA     BIT       SM1
      000000E4H   SFRSYM    DATA     BYTE      SPIRCON0
      0000008BH   SFRSYM    DATA     BYTE      TL1
      000000E5H   SFRSYM    DATA     BYTE      SPIRCON1
      000000CCH   SFRSYM    DATA     BYTE      TL2
      000000BCH   SFRSYM    DATA     BYTE      SPISCON0
      000000BDH   SFRSYM    DATA     BYTE      SPISCON1
      000000D0H.3 SFRSYM    DATA     BIT       RS0
      00000088H.4 SFRSYM    DATA     BIT       TR0
      000000D0H.4 SFRSYM    DATA     BIT       RS1
      000000B2H   SFRSYM    DATA     BYTE      PWMCON
      00000088H.6 SFRSYM    DATA     BIT       TR1
      000000CAH   SFRSYM    DATA     WORD      CRC
      000000A6H   SFRSYM    DATA     BYTE      INTEXP
LX51 LINKER/LOCATER V4.55a                                                            09/28/2014  17:29:52  PAGE 22


      000000C0H.3 SFRSYM    DATA     BIT       WUPINF
      000000FAH   SFRSYM    DATA     BYTE      FCR
      000000D3H   SFRSYM    DATA     BYTE      ADCCON1
      000000D2H   SFRSYM    DATA     BYTE      ADCCON2
      00000083H   SFRSYM    DATA     BYTE      DPH
      000000D1H   SFRSYM    DATA     BYTE      ADCCON3
      000000C0H.1 SFRSYM    DATA     BIT       RFF
      00000093H   SFRSYM    DATA     BYTE      P0DIR
      00000082H   SFRSYM    DATA     BYTE      DPL
      0000009EH   SFRSYM    DATA     BYTE      P0CON
      00000099H   SFRSYM    DATA     BYTE      S0BUF
      00000094H   SFRSYM    DATA     BYTE      P1DIR
      0000009FH   SFRSYM    DATA     BYTE      P1CON
      00000095H   SFRSYM    DATA     BYTE      P2DIR
      000000B8H.7 SFRSYM    DATA     BIT       EXEN2
      000000DAH   SFRSYM    DATA     BYTE      W2DAT
      00000097H   SFRSYM    DATA     BYTE      P2CON
      00000096H   SFRSYM    DATA     BYTE      P3DIR
      000000A4H   SFRSYM    DATA     BYTE      PWRDWN
      00000098H   SFRSYM    DATA     BYTE      S0CON
      0000008FH   SFRSYM    DATA     BYTE      P3CON
      000000B6H   SFRSYM    DATA     BYTE      RTC2CPT00
      000000D8H   SFRSYM    DATA     BYTE      ADCON
      000000ACH   SFRSYM    DATA     BYTE      RTC2CPT10
      000000ABH   SFRSYM    DATA     BYTE      RTC2CPT01
      000000C8H   SFRSYM    DATA     BYTE      T2CON
      00000092H   SFRSYM    DATA     BYTE      DPS
      000000F8H.5 SFRSYM    DATA     BIT       WEN
      000000F8H   SFRSYM    DATA     BYTE      FSR
      000000D4H   SFRSYM    DATA     BYTE      ADCDATH
      000000C9H   SFRSYM    DATA     BYTE      MPAGE
      000000B8H.2 SFRSYM    DATA     BIT       SPI
      000000F8H.1 SFRSYM    DATA     BIT       RDEND
      000000D5H   SFRSYM    DATA     BYTE      ADCDATL
      000000F8H.3 SFRSYM    DATA     BIT       INFEN
      000000F8H.7 SFRSYM    DATA     BIT       MCDIS
      000000C0H.5 SFRSYM    DATA     BIT       WUF
      000000C0H.4 SFRSYM    DATA     BIT       MISCF
      000000EFH   SFRSYM    DATA     BYTE      ARCON
      000000D0H.5 SFRSYM    DATA     BIT       F0
      000000F8H.6 SFRSYM    DATA     BIT       STP
      000000FEH   SFRSYM    DATA     BYTE      SPIMSTAT
      000000E8H   SFRSYM    DATA     BYTE      RFCON
      000000D0H   SFRSYM    DATA     BYTE      PSW
      00000098H.2 SFRSYM    DATA     BIT       RB80
      000000C0H   SFRSYM    DATA     BYTE      IRCON
      000000E8H.1 SFRSYM    DATA     BIT       RFCSN
      000000E6H   SFRSYM    DATA     BYTE      SPIRSTAT
      000000B3H   SFRSYM    DATA     BYTE      RTC2CON
      0000004CH   SYMBOL    IDATA    ---       uart_rx
      00000054H   SYMBOL    IDATA    ---       uart_tx
      0000003FH   SYMBOL    DATA     BYTE      uart_rx_cnt
      00000040H   SYMBOL    DATA     BYTE      uart_tx_cnt
      00000041H   SYMBOL    DATA     BYTE      uart_rx_rp
      00000042H   SYMBOL    DATA     BYTE      uart_tx_rp
      00000043H   SYMBOL    DATA     BYTE      uart_rx_wp
      00000044H   SYMBOL    DATA     BYTE      uart_tx_wp

      010007D6H   BLOCK     CODE     ---       LVL=0
      010007D6H   LINE      CODE     ---       #41
      010007DFH   LINE      CODE     ---       #43
      010007E2H   LINE      CODE     ---       #44
      010007E2H   LINE      CODE     ---       #45
      010007E4H   LINE      CODE     ---       #46
      010007EBH   LINE      CODE     ---       #47
LX51 LINKER/LOCATER V4.55a                                                            09/28/2014  17:29:52  PAGE 23


      010007EBH   LINE      CODE     ---       #48
      010007F2H   LINE      CODE     ---       #49
      010007F9H   LINE      CODE     ---       #50
      010007FBH   LINE      CODE     ---       #51
      010007FBH   LINE      CODE     ---       #52
      010007FBH   LINE      CODE     ---       #53
      010007FEH   LINE      CODE     ---       #54
      010007FEH   LINE      CODE     ---       #55
      01000800H   LINE      CODE     ---       #56
      01000807H   LINE      CODE     ---       #57
      01000807H   LINE      CODE     ---       #58
      0100080FH   LINE      CODE     ---       #59
      01000816H   LINE      CODE     ---       #60
      01000816H   LINE      CODE     ---       #61
      01000818H   LINE      CODE     ---       #62
      01000818H   LINE      CODE     ---       #63
      ---         BLOCKEND  ---      ---       LVL=0

      0100081FH   BLOCK     CODE     ---       LVL=0
      00000007H   SYMBOL    DATA     BYTE      baud
      0100081FH   BLOCK     CODE     NEAR LAB  LVL=1
      00000004H   SYMBOL    DATA     WORD      temp
      ---         BLOCKEND  ---      ---       LVL=1
      0100081FH   LINE      CODE     ---       #65
      0100081FH   LINE      CODE     ---       #66
      0100081FH   LINE      CODE     ---       #69
      01000821H   LINE      CODE     ---       #70
      01000826H   LINE      CODE     ---       #71
      01000828H   LINE      CODE     ---       #72
      0100082CH   LINE      CODE     ---       #73
      0100082EH   LINE      CODE     ---       #74
      01000830H   LINE      CODE     ---       #75
      01000832H   LINE      CODE     ---       #76
      01000834H   LINE      CODE     ---       #77
      01000837H   LINE      CODE     ---       #78
      0100083AH   LINE      CODE     ---       #79
      01000846H   LINE      CODE     ---       #80
      01000846H   LINE      CODE     ---       #81
      01000846H   LINE      CODE     ---       #82
      0100084AH   LINE      CODE     ---       #83
      0100084CH   LINE      CODE     ---       #84
      0100084CH   LINE      CODE     ---       #85
      01000850H   LINE      CODE     ---       #86
      01000852H   LINE      CODE     ---       #87
      01000852H   LINE      CODE     ---       #88
      01000856H   LINE      CODE     ---       #89
      01000858H   LINE      CODE     ---       #90
      01000858H   LINE      CODE     ---       #91
      01000858H   LINE      CODE     ---       #92
      0100085CH   LINE      CODE     ---       #93
      0100085CH   LINE      CODE     ---       #94
      0100085CH   LINE      CODE     ---       #95
      0100085EH   LINE      CODE     ---       #96
      01000860H   LINE      CODE     ---       #98
      01000862H   LINE      CODE     ---       #99
      01000864H   LINE      CODE     ---       #100
      ---         BLOCKEND  ---      ---       LVL=0

      010008A1H   BLOCK     CODE     ---       LVL=0
      00000007H   SYMBOL    DATA     BYTE      ch
      010008A1H   LINE      CODE     ---       #102
      010008A1H   LINE      CODE     ---       #103
      010008A1H   LINE      CODE     ---       #105
      010008A8H   LINE      CODE     ---       #107
      010008AAH   LINE      CODE     ---       #108
LX51 LINKER/LOCATER V4.55a                                                            09/28/2014  17:29:52  PAGE 24


      010008AEH   LINE      CODE     ---       #109
      010008AEH   LINE      CODE     ---       #110
      010008B0H   LINE      CODE     ---       #111
      010008B2H   LINE      CODE     ---       #113
      010008B2H   LINE      CODE     ---       #114
      010008B9H   LINE      CODE     ---       #115
      010008C0H   LINE      CODE     ---       #116
      010008C0H   LINE      CODE     ---       #117
      010008C2H   LINE      CODE     ---       #118
      010008C4H   LINE      CODE     ---       #119
      ---         BLOCKEND  ---      ---       LVL=0

      01000A0FH   BLOCK     CODE     ---       LVL=0
      01000A0FH   LINE      CODE     ---       #122
      01000A0FH   LINE      CODE     ---       #123
      01000A0FH   LINE      CODE     ---       #124
      01000A11H   LINE      CODE     ---       #125
      ---         BLOCKEND  ---      ---       LVL=0

      010009E9H   BLOCK     CODE     ---       LVL=0
      010009E9H   LINE      CODE     ---       #127
      010009E9H   LINE      CODE     ---       #128
      010009E9H   LINE      CODE     ---       #129
      010009EFH   LINE      CODE     ---       #130
      010009EFH   LINE      CODE     ---       #131
      010009F1H   LINE      CODE     ---       #132
      010009F1H   LINE      CODE     ---       #134
      010009F1H   LINE      CODE     ---       #135
      010009F1H   LINE      CODE     ---       #136
      010009F1H   LINE      CODE     ---       #137
      ---         BLOCKEND  ---      ---       LVL=0

      0100091FH   BLOCK     CODE     ---       LVL=0
      0100091FH   BLOCK     CODE     NEAR LAB  LVL=1
      00000007H   SYMBOL    DATA     BYTE      ch
      ---         BLOCKEND  ---      ---       LVL=1
      0100091FH   LINE      CODE     ---       #138
      0100091FH   LINE      CODE     ---       #139
      0100091FH   LINE      CODE     ---       #144
      01000923H   LINE      CODE     ---       #145
      01000923H   LINE      CODE     ---       #146
      01000925H   LINE      CODE     ---       #147
      0100092CH   LINE      CODE     ---       #148
      01000933H   LINE      CODE     ---       #149
      01000935H   LINE      CODE     ---       #150
      01000937H   LINE      CODE     ---       #151
      01000937H   LINE      CODE     ---       #152
      ---         BLOCKEND  ---      ---       LVL=0

      ---         MODULE    ---      ---       HAL_FLASH
      00000038H   PUBLIC    DATA     BYTE      ?_hal_flash_bytes_read?BYTE
      010008C5H   PUBLIC    CODE     ---       _hal_flash_bytes_read
      010009F9H   PUBLIC    CODE     ---       _hal_flash_byte_read
      00000031H   PUBLIC    DATA     BYTE      ?_hal_flash_bytes_write?BYTE
      0100073CH   PUBLIC    CODE     ---       _hal_flash_bytes_write
      010008E9H   PUBLIC    CODE     ---       _hal_flash_byte_write
      0100094CH   PUBLIC    CODE     ---       _hal_flash_page_erase
      00000098H.3 SFRSYM    DATA     BIT       TB80
      000000BEH   SFRSYM    DATA     BYTE      SPISSTAT
      000000C8H   SFRSYM    DATA     BIT       T2I0
      000000C3H   SFRSYM    DATA     BYTE      CCH1
      00000080H   SFRSYM    DATA     BYTE      P0
      000000C8H.1 SFRSYM    DATA     BIT       T2I1
      000000DFH   SFRSYM    DATA     BYTE      CCPDATO
      000000C5H   SFRSYM    DATA     BYTE      CCH2
LX51 LINKER/LOCATER V4.55a                                                            09/28/2014  17:29:52  PAGE 25


      00000090H   SFRSYM    DATA     BYTE      P1
      000000C7H   SFRSYM    DATA     BYTE      CCH3
      000000A0H   SFRSYM    DATA     BYTE      P2
      00000098H.5 SFRSYM    DATA     BIT       SM20
      000000B0H   SFRSYM    DATA     BYTE      P3
      000000D0H.6 SFRSYM    DATA     BIT       AC
      000000C2H   SFRSYM    DATA     BYTE      CCL1
      000000C4H   SFRSYM    DATA     BYTE      CCL2
      000000D8H.7 SFRSYM    DATA     BIT       BD
      000000B8H   SFRSYM    DATA     BIT       RFSPI
      000000A8H.7 SFRSYM    DATA     BIT       EA
      000000CCH   SFRSYM    DATA     WORD      T2
      000000C6H   SFRSYM    DATA     BYTE      CCL3
      000000B7H   SFRSYM    DATA     BYTE      SPISRDSZ
      000000C8H.3 SFRSYM    DATA     BIT       T2R0
      000000C8H.4 SFRSYM    DATA     BIT       T2R1
      000000A8H   SFRSYM    DATA     BYTE      IEN0
      000000B8H   SFRSYM    DATA     BYTE      IEN1
      000000A5H   SFRSYM    DATA     BYTE      WUCON
      00000085H   SFRSYM    DATA     BYTE      DPH1
      000000DBH   SFRSYM    DATA     BYTE      COMPCON
      000000A3H   SFRSYM    DATA     BYTE      CLKCTRL
      00000084H   SFRSYM    DATA     BYTE      DPL1
      000000C8H.5 SFRSYM    DATA     BIT       I2FR
      000000B8H.3 SFRSYM    DATA     BIT       WUPIN
      000000C8H.6 SFRSYM    DATA     BIT       I3FR
      000000FFH   SFRSYM    DATA     BYTE      SPIMDAT
      000000C0H.7 SFRSYM    DATA     BIT       EXF2
      00000098H.4 SFRSYM    DATA     BIT       REN0
      000000C8H.2 SFRSYM    DATA     BIT       T2CM
      000000B8H.1 SFRSYM    DATA     BIT       RF
      000000B8H.5 SFRSYM    DATA     BIT       WUIRQ
      000000E7H   SFRSYM    DATA     BYTE      SPIRDAT
      000000C1H   SFRSYM    DATA     BYTE      CCEN
      000000E2H   SFRSYM    DATA     BYTE      W2CON0
      000000BFH   SFRSYM    DATA     BYTE      SPISDAT
      000000D0H.7 SFRSYM    DATA     BIT       CY
      000000E1H   SFRSYM    DATA     BYTE      W2CON1
      000000FBH   SFRSYM    DATA     BYTE      FDCR
      000000E8H   SFRSYM    DATA     BIT       RFCE
      000000CBH   SFRSYM    DATA     BYTE      CRCH
      00000081H   SFRSYM    DATA     BYTE      SP
      000000D0H.2 SFRSYM    DATA     BIT       OV
      000000CAH   SFRSYM    DATA     BYTE      CRCL
      000000ADH   SFRSYM    DATA     BYTE      CLKLFCTRL
      000000B1H   SFRSYM    DATA     BYTE      RSTREAS
      000000C8H.7 SFRSYM    DATA     BIT       T2PS
      000000F9H   SFRSYM    DATA     BYTE      FPCR
      000000B8H.4 SFRSYM    DATA     BIT       MISC
      000000A1H   SFRSYM    DATA     BYTE      PWMDC0
      000000B4H   SFRSYM    DATA     BYTE      RTC2CMP0
      000000A2H   SFRSYM    DATA     BYTE      PWMDC1
      000000B5H   SFRSYM    DATA     BYTE      RTC2CMP1
      00000080H   SFRSYM    DATA     BIT       P00
      000000BAH   SFRSYM    DATA     BYTE      S0RELH
      00000090H   SFRSYM    DATA     BIT       P10
      00000080H.1 SFRSYM    DATA     BIT       P01
      00000087H   SFRSYM    DATA     BYTE      PCON
      000000A0H   SFRSYM    DATA     BIT       P20
      00000090H.1 SFRSYM    DATA     BIT       P11
      00000080H.2 SFRSYM    DATA     BIT       P02
      000000B0H   SFRSYM    DATA     BIT       P30
      000000A0H.1 SFRSYM    DATA     BIT       P21
      00000090H.2 SFRSYM    DATA     BIT       P12
      00000080H.3 SFRSYM    DATA     BIT       P03
LX51 LINKER/LOCATER V4.55a                                                            09/28/2014  17:29:52  PAGE 26


      000000C0H.2 SFRSYM    DATA     BIT       SPIF
      000000F8H.2 SFRSYM    DATA     BIT       RDIS
      000000B0H.1 SFRSYM    DATA     BIT       P31
      000000A0H.2 SFRSYM    DATA     BIT       P22
      00000090H.3 SFRSYM    DATA     BIT       P13
      00000080H.4 SFRSYM    DATA     BIT       P04
      000000AAH   SFRSYM    DATA     BYTE      S0RELL
      000000B0H.2 SFRSYM    DATA     BIT       P32
      000000A0H.3 SFRSYM    DATA     BIT       P23
      00000090H.4 SFRSYM    DATA     BIT       P14
      00000080H.5 SFRSYM    DATA     BIT       P05
      000000D9H   SFRSYM    DATA     BYTE      W2SADR
      00000089H   SFRSYM    DATA     BYTE      TMOD
      00000088H   SFRSYM    DATA     BYTE      TCON
      000000B0H.3 SFRSYM    DATA     BIT       P33
      000000A0H.4 SFRSYM    DATA     BIT       P24
      00000090H.5 SFRSYM    DATA     BIT       P15
      00000080H.6 SFRSYM    DATA     BIT       P06
      000000B0H.4 SFRSYM    DATA     BIT       P34
      000000A0H.5 SFRSYM    DATA     BIT       P25
      00000090H.6 SFRSYM    DATA     BIT       P16
      00000080H.7 SFRSYM    DATA     BIT       P07
      000000C2H   SFRSYM    DATA     WORD      CC1
      000000B0H.5 SFRSYM    DATA     BIT       P35
      000000A0H.6 SFRSYM    DATA     BIT       P26
      00000090H.7 SFRSYM    DATA     BIT       P17
      000000C4H   SFRSYM    DATA     WORD      CC2
      000000B0H.6 SFRSYM    DATA     BIT       P36
      000000A0H.7 SFRSYM    DATA     BIT       P27
      000000C6H   SFRSYM    DATA     WORD      CC3
      000000B0H.7 SFRSYM    DATA     BIT       P37
      000000E8H.2 SFRSYM    DATA     BIT       RFCKEN
      000000F8H   SFRSYM    DATA     BIT       WPEN
      000000DDH   SFRSYM    DATA     BYTE      CCPDATIA
      000000DEH   SFRSYM    DATA     BYTE      CCPDATIB
      00000088H.1 SFRSYM    DATA     BIT       IE0
      000000F8H.4 SFRSYM    DATA     BIT       RDYN
      00000088H.3 SFRSYM    DATA     BIT       IE1
      000000CFH   SFRSYM    DATA     BYTE      WUOPC0
      000000F0H   SFRSYM    DATA     BYTE      B
      000000E9H   SFRSYM    DATA     BYTE      MD0
      000000CEH   SFRSYM    DATA     BYTE      WUOPC1
      000000A7H   SFRSYM    DATA     BYTE      MEMCON
      000000EAH   SFRSYM    DATA     BYTE      MD1
      000000D7H   SFRSYM    DATA     BYTE      RNGDAT
      000000EBH   SFRSYM    DATA     BYTE      MD2
      000000ECH   SFRSYM    DATA     BYTE      MD3
      000000EDH   SFRSYM    DATA     BYTE      MD4
      000000AFH   SFRSYM    DATA     BYTE      WDSV
      000000EEH   SFRSYM    DATA     BYTE      MD5
      000000E0H   SFRSYM    DATA     BYTE      ACC
      000000DCH   SFRSYM    DATA     BYTE      POFCON
      000000A8H.4 SFRSYM    DATA     BIT       ES0
      000000A8H.1 SFRSYM    DATA     BIT       ET0
      000000A9H   SFRSYM    DATA     BYTE      IP0
      000000A8H.3 SFRSYM    DATA     BIT       ET1
      00000088H.5 SFRSYM    DATA     BIT       TF0
      000000B9H   SFRSYM    DATA     BYTE      IP1
      000000A8H.5 SFRSYM    DATA     BIT       ET2
      00000098H   SFRSYM    DATA     BIT       RI0
      00000088H.7 SFRSYM    DATA     BIT       TF1
      000000C0H   SFRSYM    DATA     BIT       RFSPIF
      000000C0H.6 SFRSYM    DATA     BIT       TF2
      000000FCH   SFRSYM    DATA     BYTE      SPIMCON0
      000000D6H   SFRSYM    DATA     BYTE      RNGCTL
LX51 LINKER/LOCATER V4.55a                                                            09/28/2014  17:29:52  PAGE 27


      0000008CH   SFRSYM    DATA     BYTE      TH0
      000000A8H   SFRSYM    DATA     BIT       EX0
      00000098H.1 SFRSYM    DATA     BIT       TI0
      00000088H   SFRSYM    DATA     BIT       IT0
      000000FDH   SFRSYM    DATA     BYTE      SPIMCON1
      0000008DH   SFRSYM    DATA     BYTE      TH1
      000000A8H.2 SFRSYM    DATA     BIT       EX1
      00000088H.2 SFRSYM    DATA     BIT       IT1
      000000CDH   SFRSYM    DATA     BYTE      TH2
      000000AEH   SFRSYM    DATA     BYTE      OPMCON
      000000D0H   SFRSYM    DATA     BIT       P
      00000098H.7 SFRSYM    DATA     BIT       SM0
      0000008AH   SFRSYM    DATA     BYTE      TL0
      00000098H.6 SFRSYM    DATA     BIT       SM1
      000000E4H   SFRSYM    DATA     BYTE      SPIRCON0
      0000008BH   SFRSYM    DATA     BYTE      TL1
      000000E5H   SFRSYM    DATA     BYTE      SPIRCON1
      000000CCH   SFRSYM    DATA     BYTE      TL2
      000000BCH   SFRSYM    DATA     BYTE      SPISCON0
      000000BDH   SFRSYM    DATA     BYTE      SPISCON1
      000000D0H.3 SFRSYM    DATA     BIT       RS0
      00000088H.4 SFRSYM    DATA     BIT       TR0
      000000D0H.4 SFRSYM    DATA     BIT       RS1
      000000B2H   SFRSYM    DATA     BYTE      PWMCON
      00000088H.6 SFRSYM    DATA     BIT       TR1
      000000CAH   SFRSYM    DATA     WORD      CRC
      000000A6H   SFRSYM    DATA     BYTE      INTEXP
      000000C0H.3 SFRSYM    DATA     BIT       WUPINF
      000000FAH   SFRSYM    DATA     BYTE      FCR
      000000D3H   SFRSYM    DATA     BYTE      ADCCON1
      000000D2H   SFRSYM    DATA     BYTE      ADCCON2
      00000083H   SFRSYM    DATA     BYTE      DPH
      000000D1H   SFRSYM    DATA     BYTE      ADCCON3
      000000C0H.1 SFRSYM    DATA     BIT       RFF
      00000093H   SFRSYM    DATA     BYTE      P0DIR
      00000082H   SFRSYM    DATA     BYTE      DPL
      0000009EH   SFRSYM    DATA     BYTE      P0CON
      00000099H   SFRSYM    DATA     BYTE      S0BUF
      00000094H   SFRSYM    DATA     BYTE      P1DIR
      0000009FH   SFRSYM    DATA     BYTE      P1CON
      00000095H   SFRSYM    DATA     BYTE      P2DIR
      000000B8H.7 SFRSYM    DATA     BIT       EXEN2
      000000DAH   SFRSYM    DATA     BYTE      W2DAT
      00000097H   SFRSYM    DATA     BYTE      P2CON
      00000096H   SFRSYM    DATA     BYTE      P3DIR
      000000A4H   SFRSYM    DATA     BYTE      PWRDWN
      00000098H   SFRSYM    DATA     BYTE      S0CON
      0000008FH   SFRSYM    DATA     BYTE      P3CON
      000000B6H   SFRSYM    DATA     BYTE      RTC2CPT00
      000000D8H   SFRSYM    DATA     BYTE      ADCON
      000000ACH   SFRSYM    DATA     BYTE      RTC2CPT10
      000000ABH   SFRSYM    DATA     BYTE      RTC2CPT01
      000000C8H   SFRSYM    DATA     BYTE      T2CON
      00000092H   SFRSYM    DATA     BYTE      DPS
      000000F8H.5 SFRSYM    DATA     BIT       WEN
      000000F8H   SFRSYM    DATA     BYTE      FSR
      000000D4H   SFRSYM    DATA     BYTE      ADCDATH
      000000C9H   SFRSYM    DATA     BYTE      MPAGE
      000000B8H.2 SFRSYM    DATA     BIT       SPI
      000000F8H.1 SFRSYM    DATA     BIT       RDEND
      000000D5H   SFRSYM    DATA     BYTE      ADCDATL
      000000F8H.3 SFRSYM    DATA     BIT       INFEN
      000000F8H.7 SFRSYM    DATA     BIT       MCDIS
      000000C0H.5 SFRSYM    DATA     BIT       WUF
      000000C0H.4 SFRSYM    DATA     BIT       MISCF
LX51 LINKER/LOCATER V4.55a                                                            09/28/2014  17:29:52  PAGE 28


      000000EFH   SFRSYM    DATA     BYTE      ARCON
      000000D0H.5 SFRSYM    DATA     BIT       F0
      000000F8H.6 SFRSYM    DATA     BIT       STP
      000000FEH   SFRSYM    DATA     BYTE      SPIMSTAT
      000000E8H   SFRSYM    DATA     BYTE      RFCON
      000000D0H   SFRSYM    DATA     BYTE      PSW
      00000098H.2 SFRSYM    DATA     BIT       RB80
      000000C0H   SFRSYM    DATA     BYTE      IRCON
      000000E8H.1 SFRSYM    DATA     BIT       RFCSN
      000000E6H   SFRSYM    DATA     BYTE      SPIRSTAT
      000000B3H   SFRSYM    DATA     BYTE      RTC2CON

      0100094CH   BLOCK     CODE     ---       LVL=0
      00000007H   SYMBOL    DATA     BYTE      pn
      0100094CH   LINE      CODE     ---       #21
      0100094CH   LINE      CODE     ---       #22
      0100094CH   LINE      CODE     ---       #24
      01000950H   LINE      CODE     ---       #25
      01000952H   LINE      CODE     ---       #28
      01000954H   LINE      CODE     ---       #33
      01000956H   LINE      CODE     ---       #36
      01000959H   LINE      CODE     ---       #39
      0100095BH   LINE      CODE     ---       #41
      0100095FH   LINE      CODE     ---       #42
      ---         BLOCKEND  ---      ---       LVL=0

      010008E9H   BLOCK     CODE     ---       LVL=0
      00000006H   SYMBOL    DATA     WORD      a
      00000005H   SYMBOL    DATA     BYTE      b
      010008E9H   BLOCK     CODE     NEAR LAB  LVL=1
      00000045H   SYMBOL    DATA     ---       pb
      ---         BLOCKEND  ---      ---       LVL=1
      010008E9H   LINE      CODE     ---       #44
      010008E9H   LINE      CODE     ---       #45
      010008E9H   LINE      CODE     ---       #49
      010008EDH   LINE      CODE     ---       #50
      010008EFH   LINE      CODE     ---       #53
      010008F1H   LINE      CODE     ---       #58
      010008F5H   LINE      CODE     ---       #59
      010008FBH   LINE      CODE     ---       #62
      010008FEH   LINE      CODE     ---       #65
      01000900H   LINE      CODE     ---       #67
      01000904H   LINE      CODE     ---       #68
      ---         BLOCKEND  ---      ---       LVL=0

      0100073CH   BLOCK     CODE     ---       LVL=0
      00000006H   SYMBOL    DATA     WORD      a
      00000033H   SYMBOL    DATA     ---       p
      00000036H   SYMBOL    DATA     WORD      n
      01000742H   BLOCK     CODE     NEAR LAB  LVL=1
      00000047H   SYMBOL    DATA     ---       pb
      ---         BLOCKEND  ---      ---       LVL=1
      0100073CH   LINE      CODE     ---       #70
      01000742H   LINE      CODE     ---       #71
      01000742H   LINE      CODE     ---       #75
      01000746H   LINE      CODE     ---       #76
      01000748H   LINE      CODE     ---       #79
      0100074AH   LINE      CODE     ---       #84
      0100074EH   LINE      CODE     ---       #85
      0100075BH   LINE      CODE     ---       #86
      0100075BH   LINE      CODE     ---       #87
      0100077EH   LINE      CODE     ---       #91
      01000783H   LINE      CODE     ---       #95
      01000785H   LINE      CODE     ---       #97
      01000789H   LINE      CODE     ---       #98
LX51 LINKER/LOCATER V4.55a                                                            09/28/2014  17:29:52  PAGE 29


      ---         BLOCKEND  ---      ---       LVL=0

      010009F9H   BLOCK     CODE     ---       LVL=0
      00000006H   SYMBOL    DATA     WORD      a
      010009F9H   BLOCK     CODE     NEAR LAB  LVL=1
      00000082H   SYMBOL    DATA     ---       pb
      ---         BLOCKEND  ---      ---       LVL=1
      010009F9H   LINE      CODE     ---       #100
      010009F9H   LINE      CODE     ---       #101
      010009F9H   LINE      CODE     ---       #102
      010009FDH   LINE      CODE     ---       #103
      010009FFH   LINE      CODE     ---       #104
      ---         BLOCKEND  ---      ---       LVL=0

      010008C5H   BLOCK     CODE     ---       LVL=0
      00000006H   SYMBOL    DATA     WORD      a
      00000001H   SYMBOL    DATA     ---       p
      0000003DH   SYMBOL    DATA     WORD      n
      010008C5H   BLOCK     CODE     NEAR LAB  LVL=1
      00000006H   SYMBOL    DATA     ---       pb
      ---         BLOCKEND  ---      ---       LVL=1
      010008C5H   LINE      CODE     ---       #106
      010008C5H   LINE      CODE     ---       #107
      010008C5H   LINE      CODE     ---       #108
      010008C5H   LINE      CODE     ---       #109
      010008D2H   LINE      CODE     ---       #110
      010008D2H   LINE      CODE     ---       #111
      010008DAH   LINE      CODE     ---       #112
      010008DFH   LINE      CODE     ---       #113
      010008E6H   LINE      CODE     ---       #114
      010008E8H   LINE      CODE     ---       #115
      ---         BLOCKEND  ---      ---       LVL=0

      ---         MODULE    ---      ---       HAL_CLK
      010009C9H   PUBLIC    CODE     ---       _hal_clklf_set_source
      01000A06H   PUBLIC    CODE     ---       hal_clklf_ready
      01000A00H   PUBLIC    CODE     ---       hal_clklf_phase
      010009BDH   PUBLIC    CODE     ---       _hal_clk_set_freq
      010009DFH   PUBLIC    CODE     ---       hal_clk_get_16m_source
      01000992H   PUBLIC    CODE     ---       _hal_clk_set_16m_source
      01000971H   PUBLIC    CODE     ---       _hal_clk_set_input
      01000982H   PUBLIC    CODE     ---       _hal_clk_regret_xosc16m_on
      00000098H.3 SFRSYM    DATA     BIT       TB80
      000000BEH   SFRSYM    DATA     BYTE      SPISSTAT
      000000C8H   SFRSYM    DATA     BIT       T2I0
      000000C3H   SFRSYM    DATA     BYTE      CCH1
      00000080H   SFRSYM    DATA     BYTE      P0
      000000C8H.1 SFRSYM    DATA     BIT       T2I1
      000000DFH   SFRSYM    DATA     BYTE      CCPDATO
      000000C5H   SFRSYM    DATA     BYTE      CCH2
      00000090H   SFRSYM    DATA     BYTE      P1
      000000C7H   SFRSYM    DATA     BYTE      CCH3
      000000A0H   SFRSYM    DATA     BYTE      P2
      00000098H.5 SFRSYM    DATA     BIT       SM20
      000000B0H   SFRSYM    DATA     BYTE      P3
      000000D0H.6 SFRSYM    DATA     BIT       AC
      000000C2H   SFRSYM    DATA     BYTE      CCL1
      000000C4H   SFRSYM    DATA     BYTE      CCL2
      000000D8H.7 SFRSYM    DATA     BIT       BD
      000000B8H   SFRSYM    DATA     BIT       RFSPI
      000000A8H.7 SFRSYM    DATA     BIT       EA
      000000CCH   SFRSYM    DATA     WORD      T2
      000000C6H   SFRSYM    DATA     BYTE      CCL3
      000000B7H   SFRSYM    DATA     BYTE      SPISRDSZ
      000000C8H.3 SFRSYM    DATA     BIT       T2R0
LX51 LINKER/LOCATER V4.55a                                                            09/28/2014  17:29:52  PAGE 30


      000000C8H.4 SFRSYM    DATA     BIT       T2R1
      000000A8H   SFRSYM    DATA     BYTE      IEN0
      000000B8H   SFRSYM    DATA     BYTE      IEN1
      000000A5H   SFRSYM    DATA     BYTE      WUCON
      00000085H   SFRSYM    DATA     BYTE      DPH1
      000000DBH   SFRSYM    DATA     BYTE      COMPCON
      000000A3H   SFRSYM    DATA     BYTE      CLKCTRL
      00000084H   SFRSYM    DATA     BYTE      DPL1
      000000C8H.5 SFRSYM    DATA     BIT       I2FR
      000000B8H.3 SFRSYM    DATA     BIT       WUPIN
      000000C8H.6 SFRSYM    DATA     BIT       I3FR
      000000FFH   SFRSYM    DATA     BYTE      SPIMDAT
      000000C0H.7 SFRSYM    DATA     BIT       EXF2
      00000098H.4 SFRSYM    DATA     BIT       REN0
      000000C8H.2 SFRSYM    DATA     BIT       T2CM
      000000B8H.1 SFRSYM    DATA     BIT       RF
      000000B8H.5 SFRSYM    DATA     BIT       WUIRQ
      000000E7H   SFRSYM    DATA     BYTE      SPIRDAT
      000000C1H   SFRSYM    DATA     BYTE      CCEN
      000000E2H   SFRSYM    DATA     BYTE      W2CON0
      000000BFH   SFRSYM    DATA     BYTE      SPISDAT
      000000D0H.7 SFRSYM    DATA     BIT       CY
      000000E1H   SFRSYM    DATA     BYTE      W2CON1
      000000FBH   SFRSYM    DATA     BYTE      FDCR
      000000E8H   SFRSYM    DATA     BIT       RFCE
      000000CBH   SFRSYM    DATA     BYTE      CRCH
      00000081H   SFRSYM    DATA     BYTE      SP
      000000D0H.2 SFRSYM    DATA     BIT       OV
      000000CAH   SFRSYM    DATA     BYTE      CRCL
      000000ADH   SFRSYM    DATA     BYTE      CLKLFCTRL
      000000B1H   SFRSYM    DATA     BYTE      RSTREAS
      000000C8H.7 SFRSYM    DATA     BIT       T2PS
      000000F9H   SFRSYM    DATA     BYTE      FPCR
      000000B8H.4 SFRSYM    DATA     BIT       MISC
      000000A1H   SFRSYM    DATA     BYTE      PWMDC0
      000000B4H   SFRSYM    DATA     BYTE      RTC2CMP0
      000000A2H   SFRSYM    DATA     BYTE      PWMDC1
      000000B5H   SFRSYM    DATA     BYTE      RTC2CMP1
      00000080H   SFRSYM    DATA     BIT       P00
      000000BAH   SFRSYM    DATA     BYTE      S0RELH
      00000090H   SFRSYM    DATA     BIT       P10
      00000080H.1 SFRSYM    DATA     BIT       P01
      00000087H   SFRSYM    DATA     BYTE      PCON
      000000A0H   SFRSYM    DATA     BIT       P20
      00000090H.1 SFRSYM    DATA     BIT       P11
      00000080H.2 SFRSYM    DATA     BIT       P02
      000000B0H   SFRSYM    DATA     BIT       P30
      000000A0H.1 SFRSYM    DATA     BIT       P21
      00000090H.2 SFRSYM    DATA     BIT       P12
      00000080H.3 SFRSYM    DATA     BIT       P03
      000000C0H.2 SFRSYM    DATA     BIT       SPIF
      000000F8H.2 SFRSYM    DATA     BIT       RDIS
      000000B0H.1 SFRSYM    DATA     BIT       P31
      000000A0H.2 SFRSYM    DATA     BIT       P22
      00000090H.3 SFRSYM    DATA     BIT       P13
      00000080H.4 SFRSYM    DATA     BIT       P04
      000000AAH   SFRSYM    DATA     BYTE      S0RELL
      000000B0H.2 SFRSYM    DATA     BIT       P32
      000000A0H.3 SFRSYM    DATA     BIT       P23
      00000090H.4 SFRSYM    DATA     BIT       P14
      00000080H.5 SFRSYM    DATA     BIT       P05
      000000D9H   SFRSYM    DATA     BYTE      W2SADR
      00000089H   SFRSYM    DATA     BYTE      TMOD
      00000088H   SFRSYM    DATA     BYTE      TCON
      000000B0H.3 SFRSYM    DATA     BIT       P33
LX51 LINKER/LOCATER V4.55a                                                            09/28/2014  17:29:52  PAGE 31


      000000A0H.4 SFRSYM    DATA     BIT       P24
      00000090H.5 SFRSYM    DATA     BIT       P15
      00000080H.6 SFRSYM    DATA     BIT       P06
      000000B0H.4 SFRSYM    DATA     BIT       P34
      000000A0H.5 SFRSYM    DATA     BIT       P25
      00000090H.6 SFRSYM    DATA     BIT       P16
      00000080H.7 SFRSYM    DATA     BIT       P07
      000000C2H   SFRSYM    DATA     WORD      CC1
      000000B0H.5 SFRSYM    DATA     BIT       P35
      000000A0H.6 SFRSYM    DATA     BIT       P26
      00000090H.7 SFRSYM    DATA     BIT       P17
      000000C4H   SFRSYM    DATA     WORD      CC2
      000000B0H.6 SFRSYM    DATA     BIT       P36
      000000A0H.7 SFRSYM    DATA     BIT       P27
      000000C6H   SFRSYM    DATA     WORD      CC3
      000000B0H.7 SFRSYM    DATA     BIT       P37
      000000E8H.2 SFRSYM    DATA     BIT       RFCKEN
      000000F8H   SFRSYM    DATA     BIT       WPEN
      000000DDH   SFRSYM    DATA     BYTE      CCPDATIA
      000000DEH   SFRSYM    DATA     BYTE      CCPDATIB
      00000088H.1 SFRSYM    DATA     BIT       IE0
      000000F8H.4 SFRSYM    DATA     BIT       RDYN
      00000088H.3 SFRSYM    DATA     BIT       IE1
      000000CFH   SFRSYM    DATA     BYTE      WUOPC0
      000000F0H   SFRSYM    DATA     BYTE      B
      000000E9H   SFRSYM    DATA     BYTE      MD0
      000000CEH   SFRSYM    DATA     BYTE      WUOPC1
      000000A7H   SFRSYM    DATA     BYTE      MEMCON
      000000EAH   SFRSYM    DATA     BYTE      MD1
      000000D7H   SFRSYM    DATA     BYTE      RNGDAT
      000000EBH   SFRSYM    DATA     BYTE      MD2
      000000ECH   SFRSYM    DATA     BYTE      MD3
      000000EDH   SFRSYM    DATA     BYTE      MD4
      000000AFH   SFRSYM    DATA     BYTE      WDSV
      000000EEH   SFRSYM    DATA     BYTE      MD5
      000000E0H   SFRSYM    DATA     BYTE      ACC
      000000DCH   SFRSYM    DATA     BYTE      POFCON
      000000A8H.4 SFRSYM    DATA     BIT       ES0
      000000A8H.1 SFRSYM    DATA     BIT       ET0
      000000A9H   SFRSYM    DATA     BYTE      IP0
      000000A8H.3 SFRSYM    DATA     BIT       ET1
      00000088H.5 SFRSYM    DATA     BIT       TF0
      000000B9H   SFRSYM    DATA     BYTE      IP1
      000000A8H.5 SFRSYM    DATA     BIT       ET2
      00000098H   SFRSYM    DATA     BIT       RI0
      00000088H.7 SFRSYM    DATA     BIT       TF1
      000000C0H   SFRSYM    DATA     BIT       RFSPIF
      000000C0H.6 SFRSYM    DATA     BIT       TF2
      000000FCH   SFRSYM    DATA     BYTE      SPIMCON0
      000000D6H   SFRSYM    DATA     BYTE      RNGCTL
      0000008CH   SFRSYM    DATA     BYTE      TH0
      000000A8H   SFRSYM    DATA     BIT       EX0
      00000098H.1 SFRSYM    DATA     BIT       TI0
      00000088H   SFRSYM    DATA     BIT       IT0
      000000FDH   SFRSYM    DATA     BYTE      SPIMCON1
      0000008DH   SFRSYM    DATA     BYTE      TH1
      000000A8H.2 SFRSYM    DATA     BIT       EX1
      00000088H.2 SFRSYM    DATA     BIT       IT1
      000000CDH   SFRSYM    DATA     BYTE      TH2
      000000AEH   SFRSYM    DATA     BYTE      OPMCON
      000000D0H   SFRSYM    DATA     BIT       P
      00000098H.7 SFRSYM    DATA     BIT       SM0
      0000008AH   SFRSYM    DATA     BYTE      TL0
      00000098H.6 SFRSYM    DATA     BIT       SM1
      000000E4H   SFRSYM    DATA     BYTE      SPIRCON0
LX51 LINKER/LOCATER V4.55a                                                            09/28/2014  17:29:52  PAGE 32


      0000008BH   SFRSYM    DATA     BYTE      TL1
      000000E5H   SFRSYM    DATA     BYTE      SPIRCON1
      000000CCH   SFRSYM    DATA     BYTE      TL2
      000000BCH   SFRSYM    DATA     BYTE      SPISCON0
      000000BDH   SFRSYM    DATA     BYTE      SPISCON1
      000000D0H.3 SFRSYM    DATA     BIT       RS0
      00000088H.4 SFRSYM    DATA     BIT       TR0
      000000D0H.4 SFRSYM    DATA     BIT       RS1
      000000B2H   SFRSYM    DATA     BYTE      PWMCON
      00000088H.6 SFRSYM    DATA     BIT       TR1
      000000CAH   SFRSYM    DATA     WORD      CRC
      000000A6H   SFRSYM    DATA     BYTE      INTEXP
      000000C0H.3 SFRSYM    DATA     BIT       WUPINF
      000000FAH   SFRSYM    DATA     BYTE      FCR
      000000D3H   SFRSYM    DATA     BYTE      ADCCON1
      000000D2H   SFRSYM    DATA     BYTE      ADCCON2
      00000083H   SFRSYM    DATA     BYTE      DPH
      000000D1H   SFRSYM    DATA     BYTE      ADCCON3
      000000C0H.1 SFRSYM    DATA     BIT       RFF
      00000093H   SFRSYM    DATA     BYTE      P0DIR
      00000082H   SFRSYM    DATA     BYTE      DPL
      0000009EH   SFRSYM    DATA     BYTE      P0CON
      00000099H   SFRSYM    DATA     BYTE      S0BUF
      00000094H   SFRSYM    DATA     BYTE      P1DIR
      0000009FH   SFRSYM    DATA     BYTE      P1CON
      00000095H   SFRSYM    DATA     BYTE      P2DIR
      000000B8H.7 SFRSYM    DATA     BIT       EXEN2
      000000DAH   SFRSYM    DATA     BYTE      W2DAT
      00000097H   SFRSYM    DATA     BYTE      P2CON
      00000096H   SFRSYM    DATA     BYTE      P3DIR
      000000A4H   SFRSYM    DATA     BYTE      PWRDWN
      00000098H   SFRSYM    DATA     BYTE      S0CON
      0000008FH   SFRSYM    DATA     BYTE      P3CON
      000000B6H   SFRSYM    DATA     BYTE      RTC2CPT00
      000000D8H   SFRSYM    DATA     BYTE      ADCON
      000000ACH   SFRSYM    DATA     BYTE      RTC2CPT10
      000000ABH   SFRSYM    DATA     BYTE      RTC2CPT01
      000000C8H   SFRSYM    DATA     BYTE      T2CON
      00000092H   SFRSYM    DATA     BYTE      DPS
      000000F8H.5 SFRSYM    DATA     BIT       WEN
      000000F8H   SFRSYM    DATA     BYTE      FSR
      000000D4H   SFRSYM    DATA     BYTE      ADCDATH
      000000C9H   SFRSYM    DATA     BYTE      MPAGE
      000000B8H.2 SFRSYM    DATA     BIT       SPI
      000000F8H.1 SFRSYM    DATA     BIT       RDEND
      000000D5H   SFRSYM    DATA     BYTE      ADCDATL
      000000F8H.3 SFRSYM    DATA     BIT       INFEN
      000000F8H.7 SFRSYM    DATA     BIT       MCDIS
      000000C0H.5 SFRSYM    DATA     BIT       WUF
      000000C0H.4 SFRSYM    DATA     BIT       MISCF
      000000EFH   SFRSYM    DATA     BYTE      ARCON
      000000D0H.5 SFRSYM    DATA     BIT       F0
      000000F8H.6 SFRSYM    DATA     BIT       STP
      000000FEH   SFRSYM    DATA     BYTE      SPIMSTAT
      000000E8H   SFRSYM    DATA     BYTE      RFCON
      000000D0H   SFRSYM    DATA     BYTE      PSW
      00000098H.2 SFRSYM    DATA     BIT       RB80
      000000C0H   SFRSYM    DATA     BYTE      IRCON
      000000E8H.1 SFRSYM    DATA     BIT       RFCSN
      000000E6H   SFRSYM    DATA     BYTE      SPIRSTAT
      000000B3H   SFRSYM    DATA     BYTE      RTC2CON

      01000982H   BLOCK     CODE     ---       LVL=0
      00000007H   SYMBOL    DATA     BYTE      on
      01000982H   LINE      CODE     ---       #22
LX51 LINKER/LOCATER V4.55a                                                            09/28/2014  17:29:52  PAGE 33


      01000982H   LINE      CODE     ---       #23
      01000982H   LINE      CODE     ---       #24
      01000985H   LINE      CODE     ---       #25
      01000985H   LINE      CODE     ---       #26
      0100098DH   LINE      CODE     ---       #27
      0100098EH   LINE      CODE     ---       #29
      0100098EH   LINE      CODE     ---       #30
      01000991H   LINE      CODE     ---       #31
      01000991H   LINE      CODE     ---       #32
      ---         BLOCKEND  ---      ---       LVL=0

      01000971H   BLOCK     CODE     ---       LVL=0
      00000007H   SYMBOL    DATA     BYTE      input
      01000971H   LINE      CODE     ---       #34
      01000971H   LINE      CODE     ---       #35
      01000971H   LINE      CODE     ---       #36
      01000981H   LINE      CODE     ---       #37
      ---         BLOCKEND  ---      ---       LVL=0

      01000992H   BLOCK     CODE     ---       LVL=0
      00000007H   SYMBOL    DATA     BYTE      source
      01000992H   LINE      CODE     ---       #39
      01000992H   LINE      CODE     ---       #40
      01000992H   LINE      CODE     ---       #41
      010009A0H   LINE      CODE     ---       #42
      ---         BLOCKEND  ---      ---       LVL=0

      010009DFH   BLOCK     CODE     ---       LVL=0
      010009DFH   BLOCK     CODE     NEAR LAB  LVL=1
      00000007H   SYMBOL    DATA     BYTE      clock_source
      ---         BLOCKEND  ---      ---       LVL=1
      010009DFH   LINE      CODE     ---       #44
      010009DFH   LINE      CODE     ---       #45
      010009DFH   LINE      CODE     ---       #47
      010009E6H   LINE      CODE     ---       #48
      010009E6H   LINE      CODE     ---       #49
      010009E8H   LINE      CODE     ---       #50
      010009E8H   LINE      CODE     ---       #52
      010009E8H   LINE      CODE     ---       #53
      010009E8H   LINE      CODE     ---       #54
      010009E8H   LINE      CODE     ---       #56
      010009E8H   LINE      CODE     ---       #57
      ---         BLOCKEND  ---      ---       LVL=0

      010009BDH   BLOCK     CODE     ---       LVL=0
      00000007H   SYMBOL    DATA     BYTE      freq
      010009BDH   LINE      CODE     ---       #59
      010009BDH   LINE      CODE     ---       #60
      010009BDH   LINE      CODE     ---       #61
      010009C8H   LINE      CODE     ---       #62
      ---         BLOCKEND  ---      ---       LVL=0

      01000A00H   BLOCK     CODE     ---       LVL=0
      01000A00H   LINE      CODE     ---       #64
      01000A00H   LINE      CODE     ---       #65
      01000A00H   LINE      CODE     ---       #66
      01000A05H   LINE      CODE     ---       #67
      ---         BLOCKEND  ---      ---       LVL=0

      01000A06H   BLOCK     CODE     ---       LVL=0
      01000A06H   LINE      CODE     ---       #69
      01000A06H   LINE      CODE     ---       #70
      01000A06H   LINE      CODE     ---       #71
      01000A0BH   LINE      CODE     ---       #72
      ---         BLOCKEND  ---      ---       LVL=0
LX51 LINKER/LOCATER V4.55a                                                            09/28/2014  17:29:52  PAGE 34



      010009C9H   BLOCK     CODE     ---       LVL=0
      00000007H   SYMBOL    DATA     BYTE      source
      010009C9H   LINE      CODE     ---       #74
      010009C9H   LINE      CODE     ---       #75
      010009C9H   LINE      CODE     ---       #76
      010009D4H   LINE      CODE     ---       #77
      ---         BLOCKEND  ---      ---       LVL=0

      ---         MODULE    ---      ---       ?C_STARTUP
      01000000H   PUBLIC    CODE     ---       ?C_STARTUP

      ---         MODULE    ---      ---       ?C?CLDPTR
      01000478H   PUBLIC    CODE     ---       ?C?CLDPTR

      ---         MODULE    ---      ---       ?C?CLDOPTR
      01000491H   PUBLIC    CODE     ---       ?C?CLDOPTR

      ---         MODULE    ---      ---       ?C?CSTPTR
      010004BEH   PUBLIC    CODE     ---       ?C?CSTPTR

      ---         MODULE    ---      ---       ?C?CSTOPTR
      010004D0H   PUBLIC    CODE     ---       ?C?CSTOPTR

      ---         MODULE    ---      ---       PRINTF
      00000009H   PUBLIC    DATA     ---       ?_PRINTF517?BYTE
      00000009H   PUBLIC    DATA     ---       ?_PRINTF?BYTE
      00000009H   PUBLIC    DATA     ---       ?_SPRINTF517?BYTE
      00000009H   PUBLIC    DATA     ---       ?_SPRINTF?BYTE
      010000B8H   PUBLIC    CODE     ---       _PRINTF
      010000B8H   PUBLIC    CODE     ---       _PRINTF517
      010000B2H   PUBLIC    CODE     ---       _SPRINTF
      010000B2H   PUBLIC    CODE     ---       _SPRINTF517

      ---         MODULE    ---      ---       ?C_INIT
      010006A5H   PUBLIC    CODE     ---       ?C_START

      ---         MODULE    ---      ---       ?C?PLDIIDATA
      010004F2H   PUBLIC    CODE     ---       ?C?PLDIIDATA

      ---         MODULE    ---      ---       ?C?CCASE
      01000502H   PUBLIC    CODE     ---       ?C?CCASE

Program Size: data=92.1 xdata=0 const=0 code=2578
LX51 RUN COMPLETE.  0 WARNING(S),  0 ERROR(S)
